---
triple:          'arm64-apple-darwin'
binary-path:     '/Users/washioferdousrubai/Documents/VS code/cpp/CSE225 project/src/main'
relocations:
  - { offsetInCU: 0x741B, offset: 0x741B, size: 0x8, addend: 0x0, symName: __ZNSt3__124__put_character_sequenceB7v160006IcNS_11char_traitsIcEEEERNS_13basic_ostreamIT_T0_EES7_PKS4_m, symObjAddr: 0xA980, symBinAddr: 0x10000B704, symSize: 0x1F4 }
  - { offsetInCU: 0xD3A4, offset: 0xD3A4, size: 0x8, addend: 0x0, symName: __ZNSt3__17advanceB7v160006IPPimmvEEvRT_T0_, symObjAddr: 0xF9F4, symBinAddr: 0x100010778, symSize: 0x50 }
  - { offsetInCU: 0xF51C, offset: 0xF51C, size: 0x8, addend: 0x0, symName: __ZNSt3__1lsB7v160006INS_11char_traitsIcEEEERNS_13basic_ostreamIcT_EES6_PKc, symObjAddr: 0x1614, symBinAddr: 0x100002398, symSize: 0x48 }
  - { offsetInCU: 0xF562, offset: 0xF562, size: 0x8, addend: 0x0, symName: __ZNSt3__1lsB7v160006INS_11char_traitsIcEEEERNS_13basic_ostreamIcT_EES6_c, symObjAddr: 0x165C, symBinAddr: 0x1000023E0, symSize: 0x34 }
  - { offsetInCU: 0xF5A8, offset: 0xF5A8, size: 0x8, addend: 0x0, symName: __ZNSt3__14endlB7v160006IcNS_11char_traitsIcEEEERNS_13basic_ostreamIT_T0_EES7_, symObjAddr: 0x16BC, symBinAddr: 0x100002440, symSize: 0x58 }
  - { offsetInCU: 0xF5E8, offset: 0xF5E8, size: 0x8, addend: 0x0, symName: __ZNSt3__1eqB7v160006ERKNS_19__hash_map_iteratorINS_15__hash_iteratorIPNS_11__hash_nodeINS_17__hash_value_typeIiNS_6vectorIPiNS_9allocatorIS5_EEEEEEPvEEEEEESG_, symObjAddr: 0x2958, symBinAddr: 0x1000036DC, symSize: 0x30 }
  - { offsetInCU: 0xF625, offset: 0xF625, size: 0x8, addend: 0x0, symName: __ZNSt3__1neB7v160006ERKNS_19__hash_map_iteratorINS_15__hash_iteratorIPNS_11__hash_nodeINS_17__hash_value_typeIiNS_6vectorIPiNS_9allocatorIS5_EEEEEEPvEEEEEESG_, symObjAddr: 0x2D00, symBinAddr: 0x100003A84, symSize: 0x30 }
  - { offsetInCU: 0xF662, offset: 0xF662, size: 0x8, addend: 0x0, symName: __ZNSt3__1rsB7v160006IcNS_11char_traitsIcEENS_9allocatorIcEEEERNS_13basic_istreamIT_T0_EES9_RNS_12basic_stringIS6_S7_T1_EE, symObjAddr: 0x39EC, symBinAddr: 0x100004770, symSize: 0x314 }
  - { offsetInCU: 0xF72F, offset: 0xF72F, size: 0x8, addend: 0x0, symName: __ZNSt3__1neB7v160006ERKNS_16__deque_iteratorIcPcRcPS1_lLl4096EEES6_, symObjAddr: 0x41C8, symBinAddr: 0x100004F4C, symSize: 0x34 }
  - { offsetInCU: 0xF76C, offset: 0xF76C, size: 0x8, addend: 0x0, symName: __ZNSt3__1eqB7v160006ERKNS_16__deque_iteratorIcPcRcPS1_lLl4096EEES6_, symObjAddr: 0x4454, symBinAddr: 0x1000051D8, symSize: 0x30 }
  - { offsetInCU: 0xF7A9, offset: 0xF7A9, size: 0x8, addend: 0x0, symName: __ZNSt3__130__libcpp_is_constant_evaluatedB7v160006Ev, symObjAddr: 0x458C, symBinAddr: 0x100005310, symSize: 0xC }
  - { offsetInCU: 0xF7C6, offset: 0xF7C6, size: 0x8, addend: 0x0, symName: __ZNSt3__119__libcpp_deallocateB7v160006EPvmm, symObjAddr: 0x4598, symBinAddr: 0x10000531C, symSize: 0x30 }
  - { offsetInCU: 0xF80E, offset: 0xF80E, size: 0x8, addend: 0x0, symName: __ZNSt3__127__do_deallocate_handle_sizeB7v160006IJEEEvPvmDpT_, symObjAddr: 0x45C8, symBinAddr: 0x10000534C, symSize: 0x28 }
  - { offsetInCU: 0xF84C, offset: 0xF84C, size: 0x8, addend: 0x0, symName: __ZNSt3__124__libcpp_operator_deleteB7v160006IJPvEEEvDpT_, symObjAddr: 0x45F0, symBinAddr: 0x100005374, symSize: 0x24 }
  - { offsetInCU: 0xF881, offset: 0xF881, size: 0x8, addend: 0x0, symName: __ZNSt3__112__to_addressB7v160006IPcEEPT_S3_, symObjAddr: 0x487C, symBinAddr: 0x100005600, symSize: 0x14 }
  - { offsetInCU: 0xF8B6, offset: 0xF8B6, size: 0x8, addend: 0x0, symName: __ZNSt3__118__debug_db_erase_cB7v160006INS_12__hash_tableINS_17__hash_value_typeIciEENS_22__unordered_map_hasherIcS3_NS_4hashIcEENS_8equal_toIcEELb1EEENS_21__unordered_map_equalIcS3_S8_S6_Lb1EEENS_9allocatorIS3_EEEEEEvPT_, symObjAddr: 0x4CA8, symBinAddr: 0x100005A2C, symSize: 0x10 }
  - { offsetInCU: 0xF91A, offset: 0xF91A, size: 0x8, addend: 0x0, symName: __ZNSt3__119__debug_db_insert_cB7v160006INS_12basic_stringIcNS_11char_traitsIcEENS_9allocatorIcEEEEEEvPT_, symObjAddr: 0x51E4, symBinAddr: 0x100005F68, symSize: 0x10 }
  - { offsetInCU: 0xF94B, offset: 0xF94B, size: 0x8, addend: 0x0, symName: __ZNSt3__117__libcpp_allocateB7v160006Emm, symObjAddr: 0x5670, symBinAddr: 0x1000063F4, symSize: 0x28 }
  - { offsetInCU: 0xF988, offset: 0xF988, size: 0x8, addend: 0x0, symName: __ZNSt3__121__libcpp_operator_newB7v160006IJmEEEPvDpT_, symObjAddr: 0x56AC, symBinAddr: 0x100006430, symSize: 0x24 }
  - { offsetInCU: 0xF9C1, offset: 0xF9C1, size: 0x8, addend: 0x0, symName: __ZNSt3__119__debug_db_insert_cB7v160006INS_13unordered_mapIciNS_4hashIcEENS_8equal_toIcEENS_9allocatorINS_4pairIKciEEEEEEEEvPT_, symObjAddr: 0x5784, symBinAddr: 0x100006508, symSize: 0x10 }
  - { offsetInCU: 0xF9F2, offset: 0xF9F2, size: 0x8, addend: 0x0, symName: __ZNSt3__1neB7v160006ERKNS_19__hash_map_iteratorINS_15__hash_iteratorIPNS_11__hash_nodeINS_17__hash_value_typeIciEEPvEEEEEESB_, symObjAddr: 0x5DFC, symBinAddr: 0x100006B80, symSize: 0x30 }
  - { offsetInCU: 0xFA2F, offset: 0xFA2F, size: 0x8, addend: 0x0, symName: __ZNSt3__116__constrain_hashB7v160006Emm, symObjAddr: 0x63D0, symBinAddr: 0x100007154, symSize: 0x98 }
  - { offsetInCU: 0xFA69, offset: 0xFA69, size: 0x8, addend: 0x0, symName: __ZNSt3__1neB7v160006ERKNS_15__hash_iteratorIPNS_11__hash_nodeINS_17__hash_value_typeIciEEPvEEEES9_, symObjAddr: 0x6788, symBinAddr: 0x10000750C, symSize: 0x34 }
  - { offsetInCU: 0xFAA6, offset: 0xFAA6, size: 0x8, addend: 0x0, symName: __ZNSt3__1eqB7v160006ERKNS_15__hash_iteratorIPNS_11__hash_nodeINS_17__hash_value_typeIciEEPvEEEES9_, symObjAddr: 0x67BC, symBinAddr: 0x100007540, symSize: 0x30 }
  - { offsetInCU: 0xFB67, offset: 0xFB67, size: 0x8, addend: 0x0, symName: __ZNSt3__13maxB7v160006ImEERKT_S3_S3_, symObjAddr: 0x7164, symBinAddr: 0x100007EE8, symSize: 0x2C }
  - { offsetInCU: 0xFBAA, offset: 0xFBAA, size: 0x8, addend: 0x0, symName: __ZNSt3__116__is_hash_power2B7v160006Em, symObjAddr: 0x7190, symBinAddr: 0x100007F14, symSize: 0x50 }
  - { offsetInCU: 0xFBD6, offset: 0xFBD6, size: 0x8, addend: 0x0, symName: __ZNSt3__116__next_hash_pow2B7v160006Em, symObjAddr: 0x768C, symBinAddr: 0x100008410, symSize: 0x6C }
  - { offsetInCU: 0xFC02, offset: 0xFC02, size: 0x8, addend: 0x0, symName: __ZNSt3__125__debug_db_invalidate_allB7v160006INS_12__hash_tableINS_17__hash_value_typeIciEENS_22__unordered_map_hasherIcS3_NS_4hashIcEENS_8equal_toIcEELb1EEENS_21__unordered_map_equalIcS3_S8_S6_Lb1EEENS_9allocatorIS3_EEEEEEvPT_, symObjAddr: 0x76F8, symBinAddr: 0x10000847C, symSize: 0x10 }
  - { offsetInCU: 0xFC4F, offset: 0xFC4F, size: 0x8, addend: 0x0, symName: __ZNSt3__112__libcpp_clzB7v160006Em, symObjAddr: 0x788C, symBinAddr: 0x100008610, symSize: 0x1C }
  - { offsetInCU: 0xFC7B, offset: 0xFC7B, size: 0x8, addend: 0x0, symName: __ZNSt3__13maxB7v160006ImNS_6__lessImmEEEERKT_S5_S5_T0_, symObjAddr: 0x78A8, symBinAddr: 0x10000862C, symSize: 0x54 }
  - { offsetInCU: 0x101CC, offset: 0x101CC, size: 0x8, addend: 0x0, symName: __ZNSt3__14swapB7v160006IPPcEEvRT_S4_, symObjAddr: 0x9228, symBinAddr: 0x100009FAC, symSize: 0x3C }
  - { offsetInCU: 0x1021D, offset: 0x1021D, size: 0x8, addend: 0x0, symName: __ZNSt3__14moveB7v160006IPPcS2_EET0_T_S4_S3_, symObjAddr: 0x930C, symBinAddr: 0x10000A090, symSize: 0x40 }
  - { offsetInCU: 0x10277, offset: 0x10277, size: 0x8, addend: 0x0, symName: __ZNSt3__16__moveB7v160006INS_17_ClassicAlgPolicyEPPcS3_S3_EENS_4pairIT0_T2_EES5_T1_S6_, symObjAddr: 0x94B8, symBinAddr: 0x10000A23C, symSize: 0x44 }
  - { offsetInCU: 0x102E3, offset: 0x102E3, size: 0x8, addend: 0x0, symName: __ZNSt3__123__dispatch_copy_or_moveB7v160006INS_17_ClassicAlgPolicyENS_11__move_loopIS1_EENS_14__move_trivialEPPcS6_S6_EENS_4pairIT2_T4_EES8_T3_S9_, symObjAddr: 0x94FC, symBinAddr: 0x10000A280, symSize: 0x54 }
  - { offsetInCU: 0x10361, offset: 0x10361, size: 0x8, addend: 0x0, symName: __ZNSt3__121__unwrap_and_dispatchB7v160006INS_10__overloadINS_11__move_loopINS_17_ClassicAlgPolicyEEENS_14__move_trivialEEEPPcS8_S8_Li0EEENS_4pairIT0_T2_EESA_T1_SB_, symObjAddr: 0x9550, symBinAddr: 0x10000A2D4, symSize: 0xB4 }
  - { offsetInCU: 0x103EF, offset: 0x103EF, size: 0x8, addend: 0x0, symName: __ZNSt3__114__unwrap_rangeB7v160006IPPcS2_EENS_4pairIT0_S4_EET_S6_, symObjAddr: 0x9604, symBinAddr: 0x10000A388, symSize: 0x60 }
  - { offsetInCU: 0x1052E, offset: 0x1052E, size: 0x8, addend: 0x0, symName: __ZNSt3__113__unwrap_iterB7v160006IPPcNS_18__unwrap_iter_implIS2_Lb1EEELi0EEEDTclsrT0_8__unwrapclsr3stdE7declvalIT_EEEES6_, symObjAddr: 0x96AC, symBinAddr: 0x10000A430, symSize: 0x24 }
  - { offsetInCU: 0x10572, offset: 0x10572, size: 0x8, addend: 0x0, symName: __ZNSt3__19make_pairB7v160006IPPcS2_EENS_4pairINS_18__unwrap_ref_decayIT_E4typeENS4_IT0_E4typeEEEOS5_OS8_, symObjAddr: 0x96D0, symBinAddr: 0x10000A454, symSize: 0x38 }
  - { offsetInCU: 0x105C1, offset: 0x105C1, size: 0x8, addend: 0x0, symName: __ZNSt3__114__rewrap_rangeB7v160006IPPcS2_EET_S3_T0_, symObjAddr: 0x9708, symBinAddr: 0x10000A48C, symSize: 0x2C }
  - { offsetInCU: 0x1060D, offset: 0x1060D, size: 0x8, addend: 0x0, symName: __ZNSt3__113__rewrap_iterB7v160006IPPcS2_NS_18__unwrap_iter_implIS2_Lb1EEEEET_S5_T0_, symObjAddr: 0x9734, symBinAddr: 0x10000A4B8, symSize: 0x50 }
  - { offsetInCU: 0x10662, offset: 0x10662, size: 0x8, addend: 0x0, symName: __ZNSt3__119__copy_trivial_implB7v160006IPcS1_EENS_4pairIPT_PT0_EES4_S4_S6_, symObjAddr: 0x9784, symBinAddr: 0x10000A508, symSize: 0x84 }
  - { offsetInCU: 0x106CA, offset: 0x106CA, size: 0x8, addend: 0x0, symName: __ZNSt3__19make_pairB7v160006IRPPcS2_EENS_4pairINS_18__unwrap_ref_decayIT_E4typeENS5_IT0_E4typeEEEOS6_OS9_, symObjAddr: 0x9808, symBinAddr: 0x10000A58C, symSize: 0x38 }
  - { offsetInCU: 0x1076C, offset: 0x1076C, size: 0x8, addend: 0x0, symName: __ZNSt3__18distanceB7v160006INS_13move_iteratorIPPcEEEENS_15iterator_traitsIT_E15difference_typeES6_S6_, symObjAddr: 0x9924, symBinAddr: 0x10000A6A8, symSize: 0x3C }
  - { offsetInCU: 0x107AF, offset: 0x107AF, size: 0x8, addend: 0x0, symName: __ZNSt3__110__distanceB7v160006INS_13move_iteratorIPPcEEEENS_15iterator_traitsIT_E15difference_typeES6_S6_NS_26random_access_iterator_tagE, symObjAddr: 0x9A5C, symBinAddr: 0x10000A7E0, symSize: 0x30 }
  - { offsetInCU: 0x107FC, offset: 0x107FC, size: 0x8, addend: 0x0, symName: __ZNSt3__1miB7v160006IPPcS2_EENS_13move_iteratorIT_E15difference_typeERKS5_RKNS3_IT0_EE, symObjAddr: 0x9A8C, symBinAddr: 0x10000A810, symSize: 0x48 }
  - { offsetInCU: 0x1084B, offset: 0x1084B, size: 0x8, addend: 0x0, symName: __ZNSt3__113move_backwardB7v160006IPPcS2_EET0_T_S4_S3_, symObjAddr: 0x9C00, symBinAddr: 0x10000A984, symSize: 0x40 }
  - { offsetInCU: 0x108A5, offset: 0x108A5, size: 0x8, addend: 0x0, symName: __ZNSt3__115__move_backwardB7v160006INS_17_ClassicAlgPolicyEPPcS3_S3_EENS_4pairIT0_T2_EES5_T1_S6_, symObjAddr: 0x9C40, symBinAddr: 0x10000A9C4, symSize: 0x44 }
  - { offsetInCU: 0x10911, offset: 0x10911, size: 0x8, addend: 0x0, symName: __ZNSt3__123__dispatch_copy_or_moveB7v160006INS_17_ClassicAlgPolicyENS_20__move_backward_loopIS1_EENS_23__move_backward_trivialEPPcS6_S6_EENS_4pairIT2_T4_EES8_T3_S9_, symObjAddr: 0x9C84, symBinAddr: 0x10000AA08, symSize: 0x54 }
  - { offsetInCU: 0x1098F, offset: 0x1098F, size: 0x8, addend: 0x0, symName: __ZNSt3__121__unwrap_and_dispatchB7v160006INS_10__overloadINS_20__move_backward_loopINS_17_ClassicAlgPolicyEEENS_23__move_backward_trivialEEEPPcS8_S8_Li0EEENS_4pairIT0_T2_EESA_T1_SB_, symObjAddr: 0x9CD8, symBinAddr: 0x10000AA5C, symSize: 0xB4 }
  - { offsetInCU: 0x10A63, offset: 0x10A63, size: 0x8, addend: 0x0, symName: __ZNSt3__128__copy_backward_trivial_implB7v160006IPcS1_EENS_4pairIPT_PT0_EES4_S4_S6_, symObjAddr: 0x9DD4, symBinAddr: 0x10000AB58, symSize: 0x94 }
  - { offsetInCU: 0x10ACB, offset: 0x10ACB, size: 0x8, addend: 0x0, symName: __ZNSt3__19make_pairB7v160006IRPPcS3_EENS_4pairINS_18__unwrap_ref_decayIT_E4typeENS5_IT0_E4typeEEEOS6_OS9_, symObjAddr: 0x9E68, symBinAddr: 0x10000ABEC, symSize: 0x38 }
  - { offsetInCU: 0x10B1A, offset: 0x10B1A, size: 0x8, addend: 0x0, symName: __ZNSt3__119__allocate_at_leastB7v160006INS_9allocatorIPcEEEENS_19__allocation_resultINS_16allocator_traitsIT_E7pointerEEERS6_m, symObjAddr: 0x9FB0, symBinAddr: 0x10000AD34, symSize: 0x40 }
  - { offsetInCU: 0x10B5D, offset: 0x10B5D, size: 0x8, addend: 0x0, symName: __ZNSt3__112__to_addressB7v160006IcEEPT_S2_, symObjAddr: 0xA720, symBinAddr: 0x10000B4A4, symSize: 0x14 }
  - { offsetInCU: 0x10B92, offset: 0x10B92, size: 0x8, addend: 0x0, symName: __ZNSt3__116__pad_and_outputB7v160006IcNS_11char_traitsIcEEEENS_19ostreambuf_iteratorIT_T0_EES6_PKS4_S8_S8_RNS_8ios_baseES4_, symObjAddr: 0xABD8, symBinAddr: 0x10000B95C, symSize: 0x248 }
  - { offsetInCU: 0x10C61, offset: 0x10C61, size: 0x8, addend: 0x0, symName: __ZNSt3__112__to_addressB7v160006IKcEEPT_S3_, symObjAddr: 0xB058, symBinAddr: 0x10000BDDC, symSize: 0x14 }
  - { offsetInCU: 0x10CC9, offset: 0x10CC9, size: 0x8, addend: 0x0, symName: __ZNSt3__19use_facetB7v160006INS_5ctypeIcEEEERKT_RKNS_6localeE, symObjAddr: 0xB284, symBinAddr: 0x10000C008, symSize: 0x2C }
  - { offsetInCU: 0x110A9, offset: 0x110A9, size: 0x8, addend: 0x0, symName: __ZNSt3__118__constexpr_strlenB7v160006EPKc, symObjAddr: 0xB31C, symBinAddr: 0x10000C0A0, symSize: 0x24 }
  - { offsetInCU: 0x110D5, offset: 0x110D5, size: 0x8, addend: 0x0, symName: __ZNSt3__119__debug_db_insert_cB7v160006INS_13unordered_mapIiNS_6vectorIPiNS_9allocatorIS3_EEEENS_4hashIiEENS_8equal_toIiEENS4_INS_4pairIKiS6_EEEEEEEEvPT_, symObjAddr: 0xB3D0, symBinAddr: 0x10000C154, symSize: 0x10 }
  - { offsetInCU: 0x11106, offset: 0x11106, size: 0x8, addend: 0x0, symName: __ZNSt3__118__debug_db_erase_cB7v160006INS_12__hash_tableINS_17__hash_value_typeIiNS_6vectorIPiNS_9allocatorIS4_EEEEEENS_22__unordered_map_hasherIiS8_NS_4hashIiEENS_8equal_toIiEELb1EEENS_21__unordered_map_equalIiS8_SD_SB_Lb1EEENS5_IS8_EEEEEEvPT_, symObjAddr: 0xBE28, symBinAddr: 0x10000CBAC, symSize: 0x10 }
  - { offsetInCU: 0x1116A, offset: 0x1116A, size: 0x8, addend: 0x0, symName: __ZNSt3__1eqB7v160006ERKNS_15__hash_iteratorIPNS_11__hash_nodeINS_17__hash_value_typeIiNS_6vectorIPiNS_9allocatorIS4_EEEEEEPvEEEESE_, symObjAddr: 0xC5FC, symBinAddr: 0x10000D380, symSize: 0x30 }
  - { offsetInCU: 0x111A7, offset: 0x111A7, size: 0x8, addend: 0x0, symName: __ZNSt3__119__debug_db_insert_cB7v160006INS_6vectorIPiNS_9allocatorIS2_EEEEEEvPT_, symObjAddr: 0xC6B4, symBinAddr: 0x10000D438, symSize: 0x10 }
  - { offsetInCU: 0x111D8, offset: 0x111D8, size: 0x8, addend: 0x0, symName: __ZNSt3__118__debug_db_erase_cB7v160006INS_6vectorIPiNS_9allocatorIS2_EEEEEEvPT_, symObjAddr: 0xC970, symBinAddr: 0x10000D6F4, symSize: 0x10 }
  - { offsetInCU: 0x11209, offset: 0x11209, size: 0x8, addend: 0x0, symName: __ZNSt3__112__to_addressB7v160006IPiEEPT_S3_, symObjAddr: 0xCA8C, symBinAddr: 0x10000D810, symSize: 0x14 }
  - { offsetInCU: 0x1123E, offset: 0x1123E, size: 0x8, addend: 0x0, symName: __ZNSt3__13minB7v160006ImEERKT_S3_S3_, symObjAddr: 0xD254, symBinAddr: 0x10000DFD8, symSize: 0x2C }
  - { offsetInCU: 0x11482, offset: 0x11482, size: 0x8, addend: 0x0, symName: __ZNSt3__13minB7v160006ImNS_6__lessImmEEEERKT_S5_S5_T0_, symObjAddr: 0xD2E0, symBinAddr: 0x10000E064, symSize: 0x54 }
  - { offsetInCU: 0x114DC, offset: 0x114DC, size: 0x8, addend: 0x0, symName: __ZNSt3__120__throw_length_errorB7v160006EPKc, symObjAddr: 0xD388, symBinAddr: 0x10000E10C, symSize: 0x64 }
  - { offsetInCU: 0x11504, offset: 0x11504, size: 0x8, addend: 0x0, symName: __ZNSt3__119__allocate_at_leastB7v160006INS_9allocatorIPiEEEENS_19__allocation_resultINS_16allocator_traitsIT_E7pointerEEERS6_m, symObjAddr: 0xD57C, symBinAddr: 0x10000E300, symSize: 0x40 }
  - { offsetInCU: 0x11547, offset: 0x11547, size: 0x8, addend: 0x0, symName: __ZNSt3__142__uninitialized_allocator_move_if_noexceptB7v160006INS_9allocatorIPiEENS_16reverse_iteratorIPS2_EES6_S2_vEET1_RT_T0_SA_S7_, symObjAddr: 0xD75C, symBinAddr: 0x10000E4E0, symSize: 0xE8 }
  - { offsetInCU: 0x115C4, offset: 0x115C4, size: 0x8, addend: 0x0, symName: __ZNSt3__14swapB7v160006IPPiEEvRT_S4_, symObjAddr: 0xD890, symBinAddr: 0x10000E614, symSize: 0x3C }
  - { offsetInCU: 0x11615, offset: 0x11615, size: 0x8, addend: 0x0, symName: __ZNSt3__125__debug_db_invalidate_allB7v160006INS_6vectorIPiNS_9allocatorIS2_EEEEEEvPT_, symObjAddr: 0xD978, symBinAddr: 0x10000E6FC, symSize: 0x10 }
  - { offsetInCU: 0x11646, offset: 0x11646, size: 0x8, addend: 0x0, symName: __ZNSt3__1neB7v160006IPPiS2_EEbRKNS_16reverse_iteratorIT_EERKNS3_IT0_EE, symObjAddr: 0xD988, symBinAddr: 0x10000E70C, symSize: 0x48 }
  - { offsetInCU: 0x116B7, offset: 0x116B7, size: 0x8, addend: 0x0, symName: __ZNSt3__114__construct_atB7v160006IPiJS1_EPS1_EEPT_S4_DpOT0_, symObjAddr: 0xD9D0, symBinAddr: 0x10000E754, symSize: 0x2C }
  - { offsetInCU: 0x11727, offset: 0x11727, size: 0x8, addend: 0x0, symName: __ZNSt3__112__to_addressB7v160006INS_16reverse_iteratorIPPiEEvEENS_5decayIDTclsr19__to_address_helperIT_EE6__callclsr3stdE7declvalIRKS6_EEEEE4typeES8_, symObjAddr: 0xD9FC, symBinAddr: 0x10000E780, symSize: 0x24 }
  - { offsetInCU: 0x1175D, offset: 0x1175D, size: 0x8, addend: 0x0, symName: __ZNSt3__14moveB7v160006INS_16reverse_iteratorIPPiEES4_EET0_T_S6_S5_, symObjAddr: 0xDA68, symBinAddr: 0x10000E7EC, symSize: 0x78 }
  - { offsetInCU: 0x117E0, offset: 0x117E0, size: 0x8, addend: 0x0, symName: __ZNSt3__16__moveB7v160006INS_17_ClassicAlgPolicyENS_16reverse_iteratorIPPiEES5_S5_EENS_4pairIT0_T2_EES7_T1_S8_, symObjAddr: 0xDB50, symBinAddr: 0x10000E8D4, symSize: 0x64 }
  - { offsetInCU: 0x1184C, offset: 0x1184C, size: 0x8, addend: 0x0, symName: __ZNSt3__123__dispatch_copy_or_moveB7v160006INS_17_ClassicAlgPolicyENS_11__move_loopIS1_EENS_14__move_trivialENS_16reverse_iteratorIPPiEES8_S8_EENS_4pairIT2_T4_EESA_T3_SB_, symObjAddr: 0xDBB4, symBinAddr: 0x10000E938, symSize: 0x7C }
  - { offsetInCU: 0x118CA, offset: 0x118CA, size: 0x8, addend: 0x0, symName: __ZNSt3__121__unwrap_and_dispatchB7v160006INS_10__overloadINS_11__move_loopINS_17_ClassicAlgPolicyEEENS_14__move_trivialEEENS_16reverse_iteratorIPPiEESA_SA_Li0EEENS_4pairIT0_T2_EESC_T1_SD_, symObjAddr: 0xDC30, symBinAddr: 0x10000E9B4, symSize: 0x12C }
  - { offsetInCU: 0x1195A, offset: 0x1195A, size: 0x8, addend: 0x0, symName: __ZNSt3__114__unwrap_rangeB7v160006INS_16reverse_iteratorIPPiEES4_EENS_4pairIT0_S6_EET_S8_, symObjAddr: 0xDD5C, symBinAddr: 0x10000EAE0, symSize: 0x84 }
  - { offsetInCU: 0x11AAE, offset: 0x11AAE, size: 0x8, addend: 0x0, symName: __ZNSt3__113__unwrap_iterB7v160006INS_16reverse_iteratorIPPiEENS_18__unwrap_iter_implIS4_Lb0EEELi0EEEDTclsrT0_8__unwrapclsr3stdE7declvalIT_EEEES8_, symObjAddr: 0xDE80, symBinAddr: 0x10000EC04, symSize: 0x44 }
  - { offsetInCU: 0x11AF2, offset: 0x11AF2, size: 0x8, addend: 0x0, symName: __ZNSt3__19make_pairB7v160006INS_16reverse_iteratorIPPiEES4_EENS_4pairINS_18__unwrap_ref_decayIT_E4typeENS6_IT0_E4typeEEEOS7_OSA_, symObjAddr: 0xDEC4, symBinAddr: 0x10000EC48, symSize: 0x38 }
  - { offsetInCU: 0x11B41, offset: 0x11B41, size: 0x8, addend: 0x0, symName: __ZNSt3__114__rewrap_rangeB7v160006INS_16reverse_iteratorIPPiEES4_EET_S5_T0_, symObjAddr: 0xDEFC, symBinAddr: 0x10000EC80, symSize: 0x5C }
  - { offsetInCU: 0x11B8D, offset: 0x11B8D, size: 0x8, addend: 0x0, symName: __ZNSt3__113__rewrap_iterB7v160006INS_16reverse_iteratorIPPiEES4_NS_18__unwrap_iter_implIS4_Lb0EEEEET_S7_T0_, symObjAddr: 0xDF58, symBinAddr: 0x10000ECDC, symSize: 0x88 }
  - { offsetInCU: 0x11D18, offset: 0x11D18, size: 0x8, addend: 0x0, symName: __ZNSt3__125__debug_db_invalidate_allB7v160006INS_12__hash_tableINS_17__hash_value_typeIiNS_6vectorIPiNS_9allocatorIS4_EEEEEENS_22__unordered_map_hasherIiS8_NS_4hashIiEENS_8equal_toIiEELb1EEENS_21__unordered_map_equalIiS8_SD_SB_Lb1EEENS5_IS8_EEEEEEvPT_, symObjAddr: 0xF3F0, symBinAddr: 0x100010174, symSize: 0x10 }
  - { offsetInCU: 0x11D49, offset: 0x11D49, size: 0x8, addend: 0x0, symName: __ZNSt3__18distanceB7v160006IPPiEENS_15iterator_traitsIT_E15difference_typeES4_S4_, symObjAddr: 0xF9C8, symBinAddr: 0x10001074C, symSize: 0x2C }
  - { offsetInCU: 0x11D8C, offset: 0x11D8C, size: 0x8, addend: 0x0, symName: __ZNSt3__14copyB7v160006IPPiS2_EET0_T_S4_S3_, symObjAddr: 0xFA44, symBinAddr: 0x1000107C8, symSize: 0x40 }
  - { offsetInCU: 0x11DE6, offset: 0x11DE6, size: 0x8, addend: 0x0, symName: __ZNSt3__110__distanceB7v160006IPPiEENS_15iterator_traitsIT_E15difference_typeES4_S4_NS_26random_access_iterator_tagE, symObjAddr: 0xFCD8, symBinAddr: 0x100010A5C, symSize: 0x28 }
  - { offsetInCU: 0x11E33, offset: 0x11E33, size: 0x8, addend: 0x0, symName: __ZNSt3__121__convert_to_integralB7v160006Em, symObjAddr: 0xFD00, symBinAddr: 0x100010A84, symSize: 0x14 }
  - { offsetInCU: 0x11E5F, offset: 0x11E5F, size: 0x8, addend: 0x0, symName: __ZNSt3__19__advanceB7v160006IPPiEEvRT_NS_15iterator_traitsIS3_E15difference_typeENS_26random_access_iterator_tagE, symObjAddr: 0xFD14, symBinAddr: 0x100010A98, symSize: 0x28 }
  - { offsetInCU: 0x11EA8, offset: 0x11EA8, size: 0x8, addend: 0x0, symName: __ZNSt3__16__copyB7v160006INS_17_ClassicAlgPolicyEPPiS3_S3_EENS_4pairIT0_T2_EES5_T1_S6_, symObjAddr: 0xFD3C, symBinAddr: 0x100010AC0, symSize: 0x44 }
  - { offsetInCU: 0x11F14, offset: 0x11F14, size: 0x8, addend: 0x0, symName: __ZNSt3__123__dispatch_copy_or_moveB7v160006INS_17_ClassicAlgPolicyENS_11__copy_loopIS1_EENS_14__copy_trivialEPPiS6_S6_EENS_4pairIT2_T4_EES8_T3_S9_, symObjAddr: 0xFD80, symBinAddr: 0x100010B04, symSize: 0x54 }
  - { offsetInCU: 0x11F92, offset: 0x11F92, size: 0x8, addend: 0x0, symName: __ZNSt3__121__unwrap_and_dispatchB7v160006INS_10__overloadINS_11__copy_loopINS_17_ClassicAlgPolicyEEENS_14__copy_trivialEEEPPiS8_S8_Li0EEENS_4pairIT0_T2_EESA_T1_SB_, symObjAddr: 0xFDD4, symBinAddr: 0x100010B58, symSize: 0xB4 }
  - { offsetInCU: 0x12020, offset: 0x12020, size: 0x8, addend: 0x0, symName: __ZNSt3__114__unwrap_rangeB7v160006IPPiS2_EENS_4pairIT0_S4_EET_S6_, symObjAddr: 0xFE88, symBinAddr: 0x100010C0C, symSize: 0x60 }
  - { offsetInCU: 0x1215F, offset: 0x1215F, size: 0x8, addend: 0x0, symName: __ZNSt3__113__unwrap_iterB7v160006IPPiNS_18__unwrap_iter_implIS2_Lb1EEELi0EEEDTclsrT0_8__unwrapclsr3stdE7declvalIT_EEEES6_, symObjAddr: 0xFF30, symBinAddr: 0x100010CB4, symSize: 0x24 }
  - { offsetInCU: 0x121A3, offset: 0x121A3, size: 0x8, addend: 0x0, symName: __ZNSt3__19make_pairB7v160006IPPiS2_EENS_4pairINS_18__unwrap_ref_decayIT_E4typeENS4_IT0_E4typeEEEOS5_OS8_, symObjAddr: 0xFF54, symBinAddr: 0x100010CD8, symSize: 0x38 }
  - { offsetInCU: 0x121F2, offset: 0x121F2, size: 0x8, addend: 0x0, symName: __ZNSt3__114__rewrap_rangeB7v160006IPPiS2_EET_S3_T0_, symObjAddr: 0xFF8C, symBinAddr: 0x100010D10, symSize: 0x2C }
  - { offsetInCU: 0x1223E, offset: 0x1223E, size: 0x8, addend: 0x0, symName: __ZNSt3__113__rewrap_iterB7v160006IPPiS2_NS_18__unwrap_iter_implIS2_Lb1EEEEET_S5_T0_, symObjAddr: 0xFFB8, symBinAddr: 0x100010D3C, symSize: 0x50 }
  - { offsetInCU: 0x12293, offset: 0x12293, size: 0x8, addend: 0x0, symName: __ZNSt3__119__copy_trivial_implB7v160006IPiS1_EENS_4pairIPT_PT0_EES4_S4_S6_, symObjAddr: 0x10008, symBinAddr: 0x100010D8C, symSize: 0x84 }
  - { offsetInCU: 0x122FB, offset: 0x122FB, size: 0x8, addend: 0x0, symName: __ZNSt3__19make_pairB7v160006IRPPiS2_EENS_4pairINS_18__unwrap_ref_decayIT_E4typeENS5_IT0_E4typeEEEOS6_OS9_, symObjAddr: 0x1008C, symBinAddr: 0x100010E10, symSize: 0x38 }
  - { offsetInCU: 0x1239D, offset: 0x1239D, size: 0x8, addend: 0x0, symName: __ZNSt3__130__uninitialized_allocator_copyB7v160006INS_9allocatorIPiEEPS2_S4_S4_EET2_RT_T0_T1_S5_, symObjAddr: 0x101A8, symBinAddr: 0x100010F2C, symSize: 0xFC }
  - { offsetInCU: 0x1243B, offset: 0x1243B, size: 0x8, addend: 0x0, symName: __ZNSt3__122__make_exception_guardB7v160006INS_29_AllocatorDestroyRangeReverseINS_9allocatorIPiEEPS3_EEEENS_28__exception_guard_exceptionsIT_EES8_, symObjAddr: 0x102A4, symBinAddr: 0x100011028, symSize: 0x4C }
  - { offsetInCU: 0x12471, offset: 0x12471, size: 0x8, addend: 0x0, symName: __ZNSt3__119__allocator_destroyB7v160006INS_9allocatorIPiEENS_16reverse_iteratorIPS2_EES6_EEvRT_T0_T1_, symObjAddr: 0x10524, symBinAddr: 0x1000112A8, symSize: 0x70 }
  - { offsetInCU: 0x124D4, offset: 0x124D4, size: 0x8, addend: 0x0, symName: __ZNSt3__122__make_exception_guardB7v160006INS_6vectorIPiNS_9allocatorIS2_EEE16__destroy_vectorEEENS_28__exception_guard_exceptionsIT_EES8_, symObjAddr: 0x107C0, symBinAddr: 0x100011544, symSize: 0x40 }
  - { offsetInCU: 0x12527, offset: 0x12527, size: 0x8, addend: 0x0, symName: __ZNSt3__1neB7v160006ERKNS_15__hash_iteratorIPNS_11__hash_nodeINS_17__hash_value_typeIiNS_6vectorIPiNS_9allocatorIS4_EEEEEEPvEEEESE_, symObjAddr: 0x11084, symBinAddr: 0x100011E08, symSize: 0x34 }
  - { offsetInCU: 0x12AEE, offset: 0x12AEE, size: 0x8, addend: 0x0, symName: __ZNSt3__125__debug_db_invalidate_allB7v160006INS_12basic_stringIcNS_11char_traitsIcEENS_9allocatorIcEEEEEEvPT_, symObjAddr: 0x11480, symBinAddr: 0x100012204, symSize: 0x10 }
  - { offsetInCU: 0x12DF0, offset: 0x12DF0, size: 0x8, addend: 0x0, symName: __ZSt28__throw_bad_array_new_lengthB7v160006v, symObjAddr: 0x563C, symBinAddr: 0x1000063C0, symSize: 0x34 }
  - { offsetInCU: 0x13A5A, offset: 0x13A5A, size: 0x8, addend: 0x0, symName: __Z3powB7v160006IiiENSt3__19enable_ifIXaasr3std13is_arithmeticIT_EE5valuesr3std13is_arithmeticIT0_EE5valueENS0_9__promoteIS2_S3_vEEE4type4typeES2_S3_, symObjAddr: 0x1E7C, symBinAddr: 0x100002C00, symSize: 0x44 }
  - { offsetInCU: 0x13B32, offset: 0x13B32, size: 0x8, addend: 0x0, symName: __ZNSt3__16vectorIPiNS_9allocatorIS1_EEE26__swap_out_circular_bufferERNS_14__split_bufferIS1_RS3_EE, symObjAddr: 0xD080, symBinAddr: 0x10000DE04, symSize: 0x118 }
  - { offsetInCU: 0x145E3, offset: 0x145E3, size: 0x8, addend: 0x0, symName: __Z7isalphai, symObjAddr: 0x7F0, symBinAddr: 0x100001574, symSize: 0x28 }
  - { offsetInCU: 0x14663, offset: 0x14663, size: 0x8, addend: 0x0, symName: __Z7isloweri, symObjAddr: 0x198C, symBinAddr: 0x100002710, symSize: 0x28 }
  - { offsetInCU: 0x146D0, offset: 0x146D0, size: 0x8, addend: 0x0, symName: __Z7isupperi, symObjAddr: 0x818, symBinAddr: 0x10000159C, symSize: 0x28 }
  - { offsetInCU: 0x14714, offset: 0x14714, size: 0x8, addend: 0x0, symName: __Z7toloweri, symObjAddr: 0x4D8, symBinAddr: 0x10000125C, symSize: 0x24 }
  - { offsetInCU: 0x1650A, offset: 0x1650A, size: 0x8, addend: 0x0, symName: __ZN15logicCalculatorC2Ev, symObjAddr: 0x0, symBinAddr: 0x100000D84, symSize: 0x68 }
  - { offsetInCU: 0x16536, offset: 0x16536, size: 0x8, addend: 0x0, symName: __ZNSt3__112basic_stringIcNS_11char_traitsIcEENS_9allocatorIcEEEC1B7v160006Ev, symObjAddr: 0x68, symBinAddr: 0x100000DEC, symSize: 0x2C }
  - { offsetInCU: 0x16560, offset: 0x16560, size: 0x8, addend: 0x0, symName: __ZNSt3__113unordered_mapIciNS_4hashIcEENS_8equal_toIcEENS_9allocatorINS_4pairIKciEEEEEC1B7v160006Ev, symObjAddr: 0x94, symBinAddr: 0x100000E18, symSize: 0x2C }
  - { offsetInCU: 0x1658A, offset: 0x1658A, size: 0x8, addend: 0x0, symName: __ZN15logicCalculatorC1Ev, symObjAddr: 0xCC, symBinAddr: 0x100000E50, symSize: 0x2C }
  - { offsetInCU: 0x165B6, offset: 0x165B6, size: 0x8, addend: 0x0, symName: __ZN15logicCalculator11setEquationENSt3__112basic_stringIcNS0_11char_traitsIcEENS0_9allocatorIcEEEE, symObjAddr: 0xF8, symBinAddr: 0x100000E7C, symSize: 0x38 }
  - { offsetInCU: 0x165ED, offset: 0x165ED, size: 0x8, addend: 0x0, symName: __ZN15logicCalculator11makeNoSpaceEv, symObjAddr: 0x130, symBinAddr: 0x100000EB4, symSize: 0x1A4 }
  - { offsetInCU: 0x16640, offset: 0x16640, size: 0x8, addend: 0x0, symName: __ZN15logicCalculator11getEquationEv, symObjAddr: 0x2D4, symBinAddr: 0x100001058, symSize: 0x38 }
  - { offsetInCU: 0x16668, offset: 0x16668, size: 0x8, addend: 0x0, symName: __ZN15logicCalculator9setHeaderEPci, symObjAddr: 0x30C, symBinAddr: 0x100001090, symSize: 0xA4 }
  - { offsetInCU: 0x166C9, offset: 0x166C9, size: 0x8, addend: 0x0, symName: __ZNSt3__113unordered_mapIciNS_4hashIcEENS_8equal_toIcEENS_9allocatorINS_4pairIKciEEEEEixERS7_, symObjAddr: 0x3B0, symBinAddr: 0x100001134, symSize: 0x128 }
  - { offsetInCU: 0x1672E, offset: 0x1672E, size: 0x8, addend: 0x0, symName: __ZN15logicCalculator7spliterENSt3__112basic_stringIcNS0_11char_traitsIcEENS0_9allocatorIcEEEERi, symObjAddr: 0x4FC, symBinAddr: 0x100001280, symSize: 0x18C }
  - { offsetInCU: 0x167CB, offset: 0x167CB, size: 0x8, addend: 0x0, symName: __ZNSt3__15stackIcNS_5dequeIcNS_9allocatorIcEEEEEC1B7v160006Ev, symObjAddr: 0x688, symBinAddr: 0x10000140C, symSize: 0x2C }
  - { offsetInCU: 0x167F5, offset: 0x167F5, size: 0x8, addend: 0x0, symName: __ZNSt3__112basic_stringIcNS_11char_traitsIcEENS_9allocatorIcEEEixB7v160006Em, symObjAddr: 0x6B4, symBinAddr: 0x100001438, symSize: 0x30 }
  - { offsetInCU: 0x1682A, offset: 0x1682A, size: 0x8, addend: 0x0, symName: __ZNSt3__15stackIcNS_5dequeIcNS_9allocatorIcEEEEE4pushB7v160006ERKc, symObjAddr: 0x6E4, symBinAddr: 0x100001468, symSize: 0x2C }
  - { offsetInCU: 0x1685E, offset: 0x1685E, size: 0x8, addend: 0x0, symName: __ZNSt3__15stackIcNS_5dequeIcNS_9allocatorIcEEEEE3popB7v160006Ev, symObjAddr: 0x710, symBinAddr: 0x100001494, symSize: 0x24 }
  - { offsetInCU: 0x16884, offset: 0x16884, size: 0x8, addend: 0x0, symName: __ZNKSt3__15stackIcNS_5dequeIcNS_9allocatorIcEEEEE5emptyB7v160006Ev, symObjAddr: 0x734, symBinAddr: 0x1000014B8, symSize: 0x28 }
  - { offsetInCU: 0x168AA, offset: 0x168AA, size: 0x8, addend: 0x0, symName: __ZNKSt3__112basic_stringIcNS_11char_traitsIcEENS_9allocatorIcEEE6substrB7v160006Emm, symObjAddr: 0x75C, symBinAddr: 0x1000014E0, symSize: 0x68 }
  - { offsetInCU: 0x168EE, offset: 0x168EE, size: 0x8, addend: 0x0, symName: __ZNSt3__15stackIcNS_5dequeIcNS_9allocatorIcEEEEED1Ev, symObjAddr: 0x7C4, symBinAddr: 0x100001548, symSize: 0x2C }
  - { offsetInCU: 0x1691A, offset: 0x1691A, size: 0x8, addend: 0x0, symName: __ZN15logicCalculator6outputEPi, symObjAddr: 0x840, symBinAddr: 0x1000015C4, symSize: 0x100 }
  - { offsetInCU: 0x1696D, offset: 0x1696D, size: 0x8, addend: 0x0, symName: __ZN15logicCalculator5solveENSt3__112basic_stringIcNS0_11char_traitsIcEENS0_9allocatorIcEEEE, symObjAddr: 0x940, symBinAddr: 0x1000016C4, symSize: 0x3C0 }
  - { offsetInCU: 0x16A06, offset: 0x16A06, size: 0x8, addend: 0x0, symName: __ZNKSt3__112basic_stringIcNS_11char_traitsIcEENS_9allocatorIcEEE6lengthB7v160006Ev, symObjAddr: 0xD00, symBinAddr: 0x100001A84, symSize: 0x24 }
  - { offsetInCU: 0x16AF1, offset: 0x16AF1, size: 0x8, addend: 0x0, symName: __ZN14tableGeneratorC2EPNSt3__112basic_stringIcNS0_11char_traitsIcEENS0_9allocatorIcEEEEi, symObjAddr: 0xD24, symBinAddr: 0x100001AA8, symSize: 0x22C }
  - { offsetInCU: 0x16B4D, offset: 0x16B4D, size: 0x8, addend: 0x0, symName: __ZN15logicCalculatorD1Ev, symObjAddr: 0xF50, symBinAddr: 0x100001CD4, symSize: 0x2C }
  - { offsetInCU: 0x16B79, offset: 0x16B79, size: 0x8, addend: 0x0, symName: __ZN14tableGenerator9generatorEv, symObjAddr: 0xF7C, symBinAddr: 0x100001D00, symSize: 0x2AC }
  - { offsetInCU: 0x16C4F, offset: 0x16C4F, size: 0x8, addend: 0x0, symName: __ZN14tableGeneratorC1EPNSt3__112basic_stringIcNS0_11char_traitsIcEENS0_9allocatorIcEEEEi, symObjAddr: 0x1228, symBinAddr: 0x100001FAC, symSize: 0x3C }
  - { offsetInCU: 0x16C97, offset: 0x16C97, size: 0x8, addend: 0x0, symName: __ZN14tableGenerator9checkSizeEv, symObjAddr: 0x1264, symBinAddr: 0x100001FE8, symSize: 0x3B0 }
  - { offsetInCU: 0x16DD6, offset: 0x16DD6, size: 0x8, addend: 0x0, symName: __ZNSt3__113basic_ostreamIcNS_11char_traitsIcEEElsB7v160006EPFRS3_S4_E, symObjAddr: 0x1690, symBinAddr: 0x100002414, symSize: 0x2C }
  - { offsetInCU: 0x16E0A, offset: 0x16E0A, size: 0x8, addend: 0x0, symName: __ZN14tableGenerator4loopEii, symObjAddr: 0x1714, symBinAddr: 0x100002498, symSize: 0x278 }
  - { offsetInCU: 0x16F97, offset: 0x16F97, size: 0x8, addend: 0x0, symName: __ZN12mapGeneratorC2ENSt3__112basic_stringIcNS0_11char_traitsIcEENS0_9allocatorIcEEEE, symObjAddr: 0x19B4, symBinAddr: 0x100002738, symSize: 0xB0 }
  - { offsetInCU: 0x16FD2, offset: 0x16FD2, size: 0x8, addend: 0x0, symName: __ZNSt3__113unordered_mapIiNS_6vectorIPiNS_9allocatorIS2_EEEENS_4hashIiEENS_8equal_toIiEENS3_INS_4pairIKiS5_EEEEEC1B7v160006Ev, symObjAddr: 0x1A64, symBinAddr: 0x1000027E8, symSize: 0x2C }
  - { offsetInCU: 0x16FFC, offset: 0x16FFC, size: 0x8, addend: 0x0, symName: __ZN12mapGenerator12strConverterENSt3__112basic_stringIcNS0_11char_traitsIcEENS0_9allocatorIcEEEE, symObjAddr: 0x1A90, symBinAddr: 0x100002814, symSize: 0x38C }
  - { offsetInCU: 0x170CC, offset: 0x170CC, size: 0x8, addend: 0x0, symName: __ZNSt3__113unordered_mapIiNS_6vectorIPiNS_9allocatorIS2_EEEENS_4hashIiEENS_8equal_toIiEENS3_INS_4pairIKiS5_EEEEED1B7v160006Ev, symObjAddr: 0x1E1C, symBinAddr: 0x100002BA0, symSize: 0x2C }
  - { offsetInCU: 0x170F6, offset: 0x170F6, size: 0x8, addend: 0x0, symName: __ZN12mapGeneratorC1ENSt3__112basic_stringIcNS0_11char_traitsIcEENS0_9allocatorIcEEEE, symObjAddr: 0x1E48, symBinAddr: 0x100002BCC, symSize: 0x34 }
  - { offsetInCU: 0x17131, offset: 0x17131, size: 0x8, addend: 0x0, symName: __ZN12mapGenerator7makeBinEPiiRi, symObjAddr: 0x1EC0, symBinAddr: 0x100002C44, symSize: 0x108 }
  - { offsetInCU: 0x171A0, offset: 0x171A0, size: 0x8, addend: 0x0, symName: __ZN12mapGenerator3addEPi, symObjAddr: 0x1FC8, symBinAddr: 0x100002D4C, symSize: 0x2B4 }
  - { offsetInCU: 0x1729B, offset: 0x1729B, size: 0x8, addend: 0x0, symName: __ZN12mapGenerator5printEv, symObjAddr: 0x227C, symBinAddr: 0x100003000, symSize: 0x1CC }
  - { offsetInCU: 0x17330, offset: 0x17330, size: 0x8, addend: 0x0, symName: __ZN12mapGenerator5solveEv, symObjAddr: 0x2448, symBinAddr: 0x1000031CC, symSize: 0x510 }
  - { offsetInCU: 0x174BC, offset: 0x174BC, size: 0x8, addend: 0x0, symName: __ZNSt3__113unordered_mapIiNS_6vectorIPiNS_9allocatorIS2_EEEENS_4hashIiEENS_8equal_toIiEENS3_INS_4pairIKiS5_EEEEE4findB7v160006ERSB_, symObjAddr: 0x2988, symBinAddr: 0x10000370C, symSize: 0x40 }
  - { offsetInCU: 0x174F1, offset: 0x174F1, size: 0x8, addend: 0x0, symName: __ZNSt3__113unordered_mapIiNS_6vectorIPiNS_9allocatorIS2_EEEENS_4hashIiEENS_8equal_toIiEENS3_INS_4pairIKiS5_EEEEE3endB7v160006Ev, symObjAddr: 0x29C8, symBinAddr: 0x10000374C, symSize: 0x38 }
  - { offsetInCU: 0x17517, offset: 0x17517, size: 0x8, addend: 0x0, symName: __ZNSt3__16vectorIPiNS_9allocatorIS1_EEEC1B7v160006Ev, symObjAddr: 0x2A00, symBinAddr: 0x100003784, symSize: 0x2C }
  - { offsetInCU: 0x17541, offset: 0x17541, size: 0x8, addend: 0x0, symName: __ZNSt3__16vectorIPiNS_9allocatorIS1_EEE9push_backB7v160006ERKS1_, symObjAddr: 0x2A2C, symBinAddr: 0x1000037B0, symSize: 0x6C }
  - { offsetInCU: 0x17578, offset: 0x17578, size: 0x8, addend: 0x0, symName: __ZNSt3__113unordered_mapIiNS_6vectorIPiNS_9allocatorIS2_EEEENS_4hashIiEENS_8equal_toIiEENS3_INS_4pairIKiS5_EEEEEixERSB_, symObjAddr: 0x2A98, symBinAddr: 0x10000381C, symSize: 0x128 }
  - { offsetInCU: 0x175DD, offset: 0x175DD, size: 0x8, addend: 0x0, symName: __ZNSt3__16vectorIPiNS_9allocatorIS1_EEEaSB7v160006ERKS4_, symObjAddr: 0x2BC0, symBinAddr: 0x100003944, symSize: 0x68 }
  - { offsetInCU: 0x17614, offset: 0x17614, size: 0x8, addend: 0x0, symName: __ZNSt3__16vectorIPiNS_9allocatorIS1_EEED1B7v160006Ev, symObjAddr: 0x2C28, symBinAddr: 0x1000039AC, symSize: 0x2C }
  - { offsetInCU: 0x1763E, offset: 0x1763E, size: 0x8, addend: 0x0, symName: __ZNSt3__16vectorIPiNS_9allocatorIS1_EEEC1ERKS4_, symObjAddr: 0x2C54, symBinAddr: 0x1000039D8, symSize: 0x34 }
  - { offsetInCU: 0x17679, offset: 0x17679, size: 0x8, addend: 0x0, symName: __ZNKSt3__16vectorIPiNS_9allocatorIS1_EEE4sizeB7v160006Ev, symObjAddr: 0x2C88, symBinAddr: 0x100003A0C, symSize: 0x28 }
  - { offsetInCU: 0x1769F, offset: 0x1769F, size: 0x8, addend: 0x0, symName: __ZNSt3__16vectorIPiNS_9allocatorIS1_EEEixB7v160006Em, symObjAddr: 0x2CB0, symBinAddr: 0x100003A34, symSize: 0x24 }
  - { offsetInCU: 0x176D6, offset: 0x176D6, size: 0x8, addend: 0x0, symName: __ZNSt3__113unordered_mapIiNS_6vectorIPiNS_9allocatorIS2_EEEENS_4hashIiEENS_8equal_toIiEENS3_INS_4pairIKiS5_EEEEE5eraseB7v160006ERSB_, symObjAddr: 0x2CD4, symBinAddr: 0x100003A58, symSize: 0x2C }
  - { offsetInCU: 0x1770B, offset: 0x1770B, size: 0x8, addend: 0x0, symName: __ZNSt3__16vectorIPiNS_9allocatorIS1_EEE5clearB7v160006Ev, symObjAddr: 0x2D30, symBinAddr: 0x100003AB4, symSize: 0x4C }
  - { offsetInCU: 0x17740, offset: 0x17740, size: 0x8, addend: 0x0, symName: _main, symObjAddr: 0x2D7C, symBinAddr: 0x100003B00, symSize: 0x78 }
  - { offsetInCU: 0x1776E, offset: 0x1776E, size: 0x8, addend: 0x0, symName: __ZNSt3__112basic_stringIcNS_11char_traitsIcEENS_9allocatorIcEEEC1B7v160006IDnEEPKc, symObjAddr: 0x2DF4, symBinAddr: 0x100003B78, symSize: 0x34 }
  - { offsetInCU: 0x177AC, offset: 0x177AC, size: 0x8, addend: 0x0, symName: __ZN12mapGeneratorD1Ev, symObjAddr: 0x2E28, symBinAddr: 0x100003BAC, symSize: 0x2C }
  - { offsetInCU: 0x177D7, offset: 0x177D7, size: 0x8, addend: 0x0, symName: __Z4loopv, symObjAddr: 0x2E54, symBinAddr: 0x100003BD8, symSize: 0xA88 }
  - { offsetInCU: 0x1787A, offset: 0x1787A, size: 0x8, addend: 0x0, symName: __Z4logov, symObjAddr: 0x38DC, symBinAddr: 0x100004660, symSize: 0x110 }
  - { offsetInCU: 0x17894, offset: 0x17894, size: 0x8, addend: 0x0, symName: __ZNSt3__15stackIcNS_5dequeIcNS_9allocatorIcEEEEED2Ev, symObjAddr: 0x3D00, symBinAddr: 0x100004A84, symSize: 0x2C }
  - { offsetInCU: 0x178C0, offset: 0x178C0, size: 0x8, addend: 0x0, symName: __ZNSt3__15dequeIcNS_9allocatorIcEEED1B7v160006Ev, symObjAddr: 0x3D2C, symBinAddr: 0x100004AB0, symSize: 0x2C }
  - { offsetInCU: 0x178EA, offset: 0x178EA, size: 0x8, addend: 0x0, symName: __ZNSt3__15dequeIcNS_9allocatorIcEEED2B7v160006Ev, symObjAddr: 0x3D58, symBinAddr: 0x100004ADC, symSize: 0x9C }
  - { offsetInCU: 0x17941, offset: 0x17941, size: 0x8, addend: 0x0, symName: __ZNSt3__15dequeIcNS_9allocatorIcEEE5clearEv, symObjAddr: 0x3DF4, symBinAddr: 0x100004B78, symSize: 0x194 }
  - { offsetInCU: 0x179A5, offset: 0x179A5, size: 0x8, addend: 0x0, symName: __ZNSt3__114__split_bufferIPcNS_9allocatorIS1_EEE5beginB7v160006Ev, symObjAddr: 0x3F88, symBinAddr: 0x100004D0C, symSize: 0x18 }
  - { offsetInCU: 0x179CB, offset: 0x179CB, size: 0x8, addend: 0x0, symName: __ZNSt3__114__split_bufferIPcNS_9allocatorIS1_EEE3endB7v160006Ev, symObjAddr: 0x3FA0, symBinAddr: 0x100004D24, symSize: 0x18 }
  - { offsetInCU: 0x179F1, offset: 0x179F1, size: 0x8, addend: 0x0, symName: __ZNSt3__116allocator_traitsINS_9allocatorIcEEE10deallocateB7v160006ERS2_Pcm, symObjAddr: 0x3FB8, symBinAddr: 0x100004D3C, symSize: 0x34 }
  - { offsetInCU: 0x17A33, offset: 0x17A33, size: 0x8, addend: 0x0, symName: __ZNSt3__15dequeIcNS_9allocatorIcEEE7__allocB7v160006Ev, symObjAddr: 0x3FEC, symBinAddr: 0x100004D70, symSize: 0x28 }
  - { offsetInCU: 0x17A59, offset: 0x17A59, size: 0x8, addend: 0x0, symName: __ZNSt3__114__split_bufferIPcNS_9allocatorIS1_EEED1Ev, symObjAddr: 0x4014, symBinAddr: 0x100004D98, symSize: 0x2C }
  - { offsetInCU: 0x17A85, offset: 0x17A85, size: 0x8, addend: 0x0, symName: __ZNSt3__15dequeIcNS_9allocatorIcEEE5beginB7v160006Ev, symObjAddr: 0x4040, symBinAddr: 0x100004DC4, symSize: 0xCC }
  - { offsetInCU: 0x17ABA, offset: 0x17ABA, size: 0x8, addend: 0x0, symName: __ZNSt3__15dequeIcNS_9allocatorIcEEE3endB7v160006Ev, symObjAddr: 0x410C, symBinAddr: 0x100004E90, symSize: 0xBC }
  - { offsetInCU: 0x17AFE, offset: 0x17AFE, size: 0x8, addend: 0x0, symName: __ZNSt3__116allocator_traitsINS_9allocatorIcEEE7destroyB7v160006IcvEEvRS2_PT_, symObjAddr: 0x41FC, symBinAddr: 0x100004F80, symSize: 0x2C }
  - { offsetInCU: 0x17B3B, offset: 0x17B3B, size: 0x8, addend: 0x0, symName: __ZNKSt3__116__deque_iteratorIcPcRcPS1_lLl4096EEdeB7v160006Ev, symObjAddr: 0x4228, symBinAddr: 0x100004FAC, symSize: 0x18 }
  - { offsetInCU: 0x17B61, offset: 0x17B61, size: 0x8, addend: 0x0, symName: __ZNSt3__116__deque_iteratorIcPcRcPS1_lLl4096EEppB7v160006Ev, symObjAddr: 0x4240, symBinAddr: 0x100004FC4, symSize: 0x68 }
  - { offsetInCU: 0x17B87, offset: 0x17B87, size: 0x8, addend: 0x0, symName: __ZNSt3__15dequeIcNS_9allocatorIcEEE6__sizeB7v160006Ev, symObjAddr: 0x42A8, symBinAddr: 0x10000502C, symSize: 0x28 }
  - { offsetInCU: 0x17BAD, offset: 0x17BAD, size: 0x8, addend: 0x0, symName: __ZNKSt3__114__split_bufferIPcNS_9allocatorIS1_EEE4sizeB7v160006Ev, symObjAddr: 0x42D0, symBinAddr: 0x100005054, symSize: 0x28 }
  - { offsetInCU: 0x17BD3, offset: 0x17BD3, size: 0x8, addend: 0x0, symName: __ZNSt3__114__split_bufferIPcNS_9allocatorIS1_EEE5frontB7v160006Ev, symObjAddr: 0x42F8, symBinAddr: 0x10000507C, symSize: 0x18 }
  - { offsetInCU: 0x17BF9, offset: 0x17BF9, size: 0x8, addend: 0x0, symName: __ZNSt3__114__split_bufferIPcNS_9allocatorIS1_EEE9pop_frontB7v160006Ev, symObjAddr: 0x4310, symBinAddr: 0x100005094, symSize: 0x2C }
  - { offsetInCU: 0x17C1F, offset: 0x17C1F, size: 0x8, addend: 0x0, symName: __ZNKSt3__114__split_bufferIPcNS_9allocatorIS1_EEE5emptyB7v160006Ev, symObjAddr: 0x433C, symBinAddr: 0x1000050C0, symSize: 0x28 }
  - { offsetInCU: 0x17C45, offset: 0x17C45, size: 0x8, addend: 0x0, symName: __ZNSt3__116__deque_iteratorIcPcRcPS1_lLl4096EEC1B7v160006ES3_S1_, symObjAddr: 0x4364, symBinAddr: 0x1000050E8, symSize: 0x3C }
  - { offsetInCU: 0x17C8D, offset: 0x17C8D, size: 0x8, addend: 0x0, symName: __ZNSt3__116__deque_iteratorIcPcRcPS1_lLl4096EEC2B7v160006ES3_S1_, symObjAddr: 0x43A0, symBinAddr: 0x100005124, symSize: 0x2C }
  - { offsetInCU: 0x17CD5, offset: 0x17CD5, size: 0x8, addend: 0x0, symName: __ZNKSt3__15dequeIcNS_9allocatorIcEEE4sizeB7v160006Ev, symObjAddr: 0x43CC, symBinAddr: 0x100005150, symSize: 0x28 }
  - { offsetInCU: 0x17CFB, offset: 0x17CFB, size: 0x8, addend: 0x0, symName: __ZNKSt3__15dequeIcNS_9allocatorIcEEE6__sizeB7v160006Ev, symObjAddr: 0x43F4, symBinAddr: 0x100005178, symSize: 0x28 }
  - { offsetInCU: 0x17D21, offset: 0x17D21, size: 0x8, addend: 0x0, symName: __ZNKSt3__117__compressed_pairImNS_9allocatorIcEEE5firstB7v160006Ev, symObjAddr: 0x441C, symBinAddr: 0x1000051A0, symSize: 0x24 }
  - { offsetInCU: 0x17D47, offset: 0x17D47, size: 0x8, addend: 0x0, symName: __ZNKSt3__122__compressed_pair_elemImLi0ELb0EE5__getB7v160006Ev, symObjAddr: 0x4440, symBinAddr: 0x1000051C4, symSize: 0x14 }
  - { offsetInCU: 0x17D6D, offset: 0x17D6D, size: 0x8, addend: 0x0, symName: __ZNSt3__19allocatorIcE7destroyB7v160006EPc, symObjAddr: 0x4484, symBinAddr: 0x100005208, symSize: 0x14 }
  - { offsetInCU: 0x17DA1, offset: 0x17DA1, size: 0x8, addend: 0x0, symName: __ZNSt3__117__compressed_pairImNS_9allocatorIcEEE5firstB7v160006Ev, symObjAddr: 0x4498, symBinAddr: 0x10000521C, symSize: 0x24 }
  - { offsetInCU: 0x17DC7, offset: 0x17DC7, size: 0x8, addend: 0x0, symName: __ZNSt3__122__compressed_pair_elemImLi0ELb0EE5__getB7v160006Ev, symObjAddr: 0x44BC, symBinAddr: 0x100005240, symSize: 0x14 }
  - { offsetInCU: 0x17DED, offset: 0x17DED, size: 0x8, addend: 0x0, symName: __ZNSt3__114__split_bufferIPcNS_9allocatorIS1_EEE19__destruct_at_beginB7v160006EPS1_, symObjAddr: 0x44D0, symBinAddr: 0x100005254, symSize: 0x2C }
  - { offsetInCU: 0x17E21, offset: 0x17E21, size: 0x8, addend: 0x0, symName: __ZNSt3__114__split_bufferIPcNS_9allocatorIS1_EEE19__destruct_at_beginEPS1_NS_17integral_constantIbLb1EEE, symObjAddr: 0x44FC, symBinAddr: 0x100005280, symSize: 0x20 }
  - { offsetInCU: 0x17E61, offset: 0x17E61, size: 0x8, addend: 0x0, symName: __ZNSt3__19allocatorIcE10deallocateB7v160006EPcm, symObjAddr: 0x451C, symBinAddr: 0x1000052A0, symSize: 0x70 }
  - { offsetInCU: 0x17EA3, offset: 0x17EA3, size: 0x8, addend: 0x0, symName: __ZNSt3__117__compressed_pairImNS_9allocatorIcEEE6secondB7v160006Ev, symObjAddr: 0x4614, symBinAddr: 0x100005398, symSize: 0x24 }
  - { offsetInCU: 0x17EC9, offset: 0x17EC9, size: 0x8, addend: 0x0, symName: __ZNSt3__122__compressed_pair_elemINS_9allocatorIcEELi1ELb1EE5__getB7v160006Ev, symObjAddr: 0x4638, symBinAddr: 0x1000053BC, symSize: 0x14 }
  - { offsetInCU: 0x17EEF, offset: 0x17EEF, size: 0x8, addend: 0x0, symName: __ZNSt3__114__split_bufferIPcNS_9allocatorIS1_EEED2Ev, symObjAddr: 0x464C, symBinAddr: 0x1000053D0, symSize: 0x80 }
  - { offsetInCU: 0x17F1B, offset: 0x17F1B, size: 0x8, addend: 0x0, symName: __ZNSt3__114__split_bufferIPcNS_9allocatorIS1_EEE5clearB7v160006Ev, symObjAddr: 0x46CC, symBinAddr: 0x100005450, symSize: 0x28 }
  - { offsetInCU: 0x17F41, offset: 0x17F41, size: 0x8, addend: 0x0, symName: __ZNSt3__116allocator_traitsINS_9allocatorIPcEEE10deallocateB7v160006ERS3_PS2_m, symObjAddr: 0x46F4, symBinAddr: 0x100005478, symSize: 0x34 }
  - { offsetInCU: 0x17F83, offset: 0x17F83, size: 0x8, addend: 0x0, symName: __ZNSt3__114__split_bufferIPcNS_9allocatorIS1_EEE7__allocB7v160006Ev, symObjAddr: 0x4728, symBinAddr: 0x1000054AC, symSize: 0x28 }
  - { offsetInCU: 0x17FA9, offset: 0x17FA9, size: 0x8, addend: 0x0, symName: __ZNKSt3__114__split_bufferIPcNS_9allocatorIS1_EEE8capacityB7v160006Ev, symObjAddr: 0x4750, symBinAddr: 0x1000054D4, symSize: 0x40 }
  - { offsetInCU: 0x17FCF, offset: 0x17FCF, size: 0x8, addend: 0x0, symName: __ZNSt3__114__split_bufferIPcNS_9allocatorIS1_EEE17__destruct_at_endB7v160006EPS1_, symObjAddr: 0x4790, symBinAddr: 0x100005514, symSize: 0x2C }
  - { offsetInCU: 0x18003, offset: 0x18003, size: 0x8, addend: 0x0, symName: __ZNSt3__114__split_bufferIPcNS_9allocatorIS1_EEE17__destruct_at_endB7v160006EPS1_NS_17integral_constantIbLb0EEE, symObjAddr: 0x47BC, symBinAddr: 0x100005540, symSize: 0x94 }
  - { offsetInCU: 0x18043, offset: 0x18043, size: 0x8, addend: 0x0, symName: __ZNSt3__116allocator_traitsINS_9allocatorIPcEEE7destroyB7v160006IS2_vEEvRS3_PT_, symObjAddr: 0x4850, symBinAddr: 0x1000055D4, symSize: 0x2C }
  - { offsetInCU: 0x18080, offset: 0x18080, size: 0x8, addend: 0x0, symName: __ZNSt3__19allocatorIPcE7destroyB7v160006EPS1_, symObjAddr: 0x4890, symBinAddr: 0x100005614, symSize: 0x14 }
  - { offsetInCU: 0x180B4, offset: 0x180B4, size: 0x8, addend: 0x0, symName: __ZNSt3__19allocatorIPcE10deallocateB7v160006EPS1_m, symObjAddr: 0x48A4, symBinAddr: 0x100005628, symSize: 0x70 }
  - { offsetInCU: 0x180F6, offset: 0x180F6, size: 0x8, addend: 0x0, symName: __ZNSt3__117__compressed_pairIPPcNS_9allocatorIS1_EEE6secondB7v160006Ev, symObjAddr: 0x4914, symBinAddr: 0x100005698, symSize: 0x24 }
  - { offsetInCU: 0x1811C, offset: 0x1811C, size: 0x8, addend: 0x0, symName: __ZNSt3__122__compressed_pair_elemINS_9allocatorIPcEELi1ELb1EE5__getB7v160006Ev, symObjAddr: 0x4938, symBinAddr: 0x1000056BC, symSize: 0x14 }
  - { offsetInCU: 0x18142, offset: 0x18142, size: 0x8, addend: 0x0, symName: __ZNKSt3__114__split_bufferIPcNS_9allocatorIS1_EEE9__end_capB7v160006Ev, symObjAddr: 0x494C, symBinAddr: 0x1000056D0, symSize: 0x28 }
  - { offsetInCU: 0x18168, offset: 0x18168, size: 0x8, addend: 0x0, symName: __ZNKSt3__117__compressed_pairIPPcNS_9allocatorIS1_EEE5firstB7v160006Ev, symObjAddr: 0x4974, symBinAddr: 0x1000056F8, symSize: 0x24 }
  - { offsetInCU: 0x1818E, offset: 0x1818E, size: 0x8, addend: 0x0, symName: __ZNKSt3__122__compressed_pair_elemIPPcLi0ELb0EE5__getB7v160006Ev, symObjAddr: 0x4998, symBinAddr: 0x10000571C, symSize: 0x14 }
  - { offsetInCU: 0x181B3, offset: 0x181B3, size: 0x8, addend: 0x0, symName: __Z8__istypeim, symObjAddr: 0x49AC, symBinAddr: 0x100005730, symSize: 0x8C }
  - { offsetInCU: 0x181ED, offset: 0x181ED, size: 0x8, addend: 0x0, symName: __Z7isasciii, symObjAddr: 0x4A38, symBinAddr: 0x1000057BC, symSize: 0x24 }
  - { offsetInCU: 0x1821A, offset: 0x1821A, size: 0x8, addend: 0x0, symName: __ZN15logicCalculatorD2Ev, symObjAddr: 0x4A5C, symBinAddr: 0x1000057E0, symSize: 0x68 }
  - { offsetInCU: 0x18246, offset: 0x18246, size: 0x8, addend: 0x0, symName: __ZNSt3__113unordered_mapIciNS_4hashIcEENS_8equal_toIcEENS_9allocatorINS_4pairIKciEEEEED1B7v160006Ev, symObjAddr: 0x4AC4, symBinAddr: 0x100005848, symSize: 0x2C }
  - { offsetInCU: 0x18270, offset: 0x18270, size: 0x8, addend: 0x0, symName: __ZNSt3__113unordered_mapIciNS_4hashIcEENS_8equal_toIcEENS_9allocatorINS_4pairIKciEEEEED2B7v160006Ev, symObjAddr: 0x4AF0, symBinAddr: 0x100005874, symSize: 0x2C }
  - { offsetInCU: 0x1829A, offset: 0x1829A, size: 0x8, addend: 0x0, symName: __ZNSt3__112__hash_tableINS_17__hash_value_typeIciEENS_22__unordered_map_hasherIcS2_NS_4hashIcEENS_8equal_toIcEELb1EEENS_21__unordered_map_equalIcS2_S7_S5_Lb1EEENS_9allocatorIS2_EEED1Ev, symObjAddr: 0x4B1C, symBinAddr: 0x1000058A0, symSize: 0x2C }
  - { offsetInCU: 0x182C6, offset: 0x182C6, size: 0x8, addend: 0x0, symName: __ZNSt3__112__hash_tableINS_17__hash_value_typeIciEENS_22__unordered_map_hasherIcS2_NS_4hashIcEENS_8equal_toIcEELb1EEENS_21__unordered_map_equalIcS2_S7_S5_Lb1EEENS_9allocatorIS2_EEED2Ev, symObjAddr: 0x4B48, symBinAddr: 0x1000058CC, symSize: 0x80 }
  - { offsetInCU: 0x182F2, offset: 0x182F2, size: 0x8, addend: 0x0, symName: __ZNSt3__112__hash_tableINS_17__hash_value_typeIciEENS_22__unordered_map_hasherIcS2_NS_4hashIcEENS_8equal_toIcEELb1EEENS_21__unordered_map_equalIcS2_S7_S5_Lb1EEENS_9allocatorIS2_EEE17__deallocate_nodeEPNS_16__hash_node_baseIPNS_11__hash_nodeIS2_PvEEEE, symObjAddr: 0x4BC8, symBinAddr: 0x10000594C, symSize: 0xBC }
  - { offsetInCU: 0x1835C, offset: 0x1835C, size: 0x8, addend: 0x0, symName: __ZNSt3__117__compressed_pairINS_16__hash_node_baseIPNS_11__hash_nodeINS_17__hash_value_typeIciEEPvEEEENS_9allocatorIS6_EEE5firstB7v160006Ev, symObjAddr: 0x4C84, symBinAddr: 0x100005A08, symSize: 0x24 }
  - { offsetInCU: 0x18382, offset: 0x18382, size: 0x8, addend: 0x0, symName: __ZNSt3__110unique_ptrIA_PNS_16__hash_node_baseIPNS_11__hash_nodeINS_17__hash_value_typeIciEEPvEEEENS_25__bucket_list_deallocatorINS_9allocatorIS9_EEEEED1B7v160006Ev, symObjAddr: 0x4CB8, symBinAddr: 0x100005A3C, symSize: 0x2C }
  - { offsetInCU: 0x183AC, offset: 0x183AC, size: 0x8, addend: 0x0, symName: __ZNSt3__112__hash_tableINS_17__hash_value_typeIciEENS_22__unordered_map_hasherIcS2_NS_4hashIcEENS_8equal_toIcEELb1EEENS_21__unordered_map_equalIcS2_S7_S5_Lb1EEENS_9allocatorIS2_EEE12__node_allocB7v160006Ev, symObjAddr: 0x4CE4, symBinAddr: 0x100005A68, symSize: 0x28 }
  - { offsetInCU: 0x183D2, offset: 0x183D2, size: 0x8, addend: 0x0, symName: __ZNSt3__116__hash_node_baseIPNS_11__hash_nodeINS_17__hash_value_typeIciEEPvEEE8__upcastB7v160006Ev, symObjAddr: 0x4D0C, symBinAddr: 0x100005A90, symSize: 0x24 }
  - { offsetInCU: 0x183F8, offset: 0x183F8, size: 0x8, addend: 0x0, symName: __ZNSt3__116allocator_traitsINS_9allocatorINS_11__hash_nodeINS_17__hash_value_typeIciEEPvEEEEE7destroyB7v160006INS_4pairIKciEEvvEEvRS7_PT_, symObjAddr: 0x4D30, symBinAddr: 0x100005AB4, symSize: 0x14 }
  - { offsetInCU: 0x18432, offset: 0x18432, size: 0x8, addend: 0x0, symName: __ZNSt3__122__hash_key_value_typesINS_17__hash_value_typeIciEEE9__get_ptrB7v160006ERS2_, symObjAddr: 0x4D44, symBinAddr: 0x100005AC8, symSize: 0x24 }
  - { offsetInCU: 0x18455, offset: 0x18455, size: 0x8, addend: 0x0, symName: __ZNSt3__116allocator_traitsINS_9allocatorINS_11__hash_nodeINS_17__hash_value_typeIciEEPvEEEEE10deallocateB7v160006ERS7_PS6_m, symObjAddr: 0x4D68, symBinAddr: 0x100005AEC, symSize: 0x34 }
  - { offsetInCU: 0x18497, offset: 0x18497, size: 0x8, addend: 0x0, symName: __ZNSt3__117__compressed_pairINS_16__hash_node_baseIPNS_11__hash_nodeINS_17__hash_value_typeIciEEPvEEEENS_9allocatorIS6_EEE6secondB7v160006Ev, symObjAddr: 0x4D9C, symBinAddr: 0x100005B20, symSize: 0x24 }
  - { offsetInCU: 0x184BD, offset: 0x184BD, size: 0x8, addend: 0x0, symName: __ZNSt3__122__compressed_pair_elemINS_9allocatorINS_11__hash_nodeINS_17__hash_value_typeIciEEPvEEEELi1ELb1EE5__getB7v160006Ev, symObjAddr: 0x4DC0, symBinAddr: 0x100005B44, symSize: 0x14 }
  - { offsetInCU: 0x184E3, offset: 0x184E3, size: 0x8, addend: 0x0, symName: __ZNSt3__114pointer_traitsIPNS_16__hash_node_baseIPNS_11__hash_nodeINS_17__hash_value_typeIciEEPvEEEEE10pointer_toB7v160006ERS8_, symObjAddr: 0x4DD4, symBinAddr: 0x100005B58, symSize: 0x14 }
  - { offsetInCU: 0x18506, offset: 0x18506, size: 0x8, addend: 0x0, symName: __ZNSt3__117__hash_value_typeIciE11__get_valueB7v160006Ev, symObjAddr: 0x4DE8, symBinAddr: 0x100005B6C, symSize: 0x14 }
  - { offsetInCU: 0x1852C, offset: 0x1852C, size: 0x8, addend: 0x0, symName: __ZNSt3__19allocatorINS_11__hash_nodeINS_17__hash_value_typeIciEEPvEEE10deallocateB7v160006EPS5_m, symObjAddr: 0x4DFC, symBinAddr: 0x100005B80, symSize: 0x74 }
  - { offsetInCU: 0x1856E, offset: 0x1856E, size: 0x8, addend: 0x0, symName: __ZNSt3__122__compressed_pair_elemINS_16__hash_node_baseIPNS_11__hash_nodeINS_17__hash_value_typeIciEEPvEEEELi0ELb0EE5__getB7v160006Ev, symObjAddr: 0x4E70, symBinAddr: 0x100005BF4, symSize: 0x14 }
  - { offsetInCU: 0x18594, offset: 0x18594, size: 0x8, addend: 0x0, symName: __ZNSt3__110unique_ptrIA_PNS_16__hash_node_baseIPNS_11__hash_nodeINS_17__hash_value_typeIciEEPvEEEENS_25__bucket_list_deallocatorINS_9allocatorIS9_EEEEED2B7v160006Ev, symObjAddr: 0x4E84, symBinAddr: 0x100005C08, symSize: 0x30 }
  - { offsetInCU: 0x185BE, offset: 0x185BE, size: 0x8, addend: 0x0, symName: __ZNSt3__110unique_ptrIA_PNS_16__hash_node_baseIPNS_11__hash_nodeINS_17__hash_value_typeIciEEPvEEEENS_25__bucket_list_deallocatorINS_9allocatorIS9_EEEEE5resetB7v160006EDn, symObjAddr: 0x4EB4, symBinAddr: 0x100005C38, symSize: 0x6C }
  - { offsetInCU: 0x185FE, offset: 0x185FE, size: 0x8, addend: 0x0, symName: __ZNSt3__117__compressed_pairIPPNS_16__hash_node_baseIPNS_11__hash_nodeINS_17__hash_value_typeIciEEPvEEEENS_25__bucket_list_deallocatorINS_9allocatorIS9_EEEEE5firstB7v160006Ev, symObjAddr: 0x4F20, symBinAddr: 0x100005CA4, symSize: 0x24 }
  - { offsetInCU: 0x18624, offset: 0x18624, size: 0x8, addend: 0x0, symName: __ZNSt3__117__compressed_pairIPPNS_16__hash_node_baseIPNS_11__hash_nodeINS_17__hash_value_typeIciEEPvEEEENS_25__bucket_list_deallocatorINS_9allocatorIS9_EEEEE6secondB7v160006Ev, symObjAddr: 0x4F44, symBinAddr: 0x100005CC8, symSize: 0x28 }
  - { offsetInCU: 0x1864A, offset: 0x1864A, size: 0x8, addend: 0x0, symName: __ZNSt3__125__bucket_list_deallocatorINS_9allocatorIPNS_16__hash_node_baseIPNS_11__hash_nodeINS_17__hash_value_typeIciEEPvEEEEEEEclB7v160006EPSA_, symObjAddr: 0x4F6C, symBinAddr: 0x100005CF0, symSize: 0x58 }
  - { offsetInCU: 0x1867F, offset: 0x1867F, size: 0x8, addend: 0x0, symName: __ZNSt3__122__compressed_pair_elemIPPNS_16__hash_node_baseIPNS_11__hash_nodeINS_17__hash_value_typeIciEEPvEEEELi0ELb0EE5__getB7v160006Ev, symObjAddr: 0x4FC4, symBinAddr: 0x100005D48, symSize: 0x14 }
  - { offsetInCU: 0x186A5, offset: 0x186A5, size: 0x8, addend: 0x0, symName: __ZNSt3__122__compressed_pair_elemINS_25__bucket_list_deallocatorINS_9allocatorIPNS_16__hash_node_baseIPNS_11__hash_nodeINS_17__hash_value_typeIciEEPvEEEEEEEELi1ELb0EE5__getB7v160006Ev, symObjAddr: 0x4FD8, symBinAddr: 0x100005D5C, symSize: 0x14 }
  - { offsetInCU: 0x186CB, offset: 0x186CB, size: 0x8, addend: 0x0, symName: __ZNSt3__116allocator_traitsINS_9allocatorIPNS_16__hash_node_baseIPNS_11__hash_nodeINS_17__hash_value_typeIciEEPvEEEEEEE10deallocateB7v160006ERSB_PSA_m, symObjAddr: 0x4FEC, symBinAddr: 0x100005D70, symSize: 0x34 }
  - { offsetInCU: 0x1870D, offset: 0x1870D, size: 0x8, addend: 0x0, symName: __ZNSt3__125__bucket_list_deallocatorINS_9allocatorIPNS_16__hash_node_baseIPNS_11__hash_nodeINS_17__hash_value_typeIciEEPvEEEEEEE7__allocB7v160006Ev, symObjAddr: 0x5020, symBinAddr: 0x100005DA4, symSize: 0x24 }
  - { offsetInCU: 0x18733, offset: 0x18733, size: 0x8, addend: 0x0, symName: __ZNSt3__125__bucket_list_deallocatorINS_9allocatorIPNS_16__hash_node_baseIPNS_11__hash_nodeINS_17__hash_value_typeIciEEPvEEEEEEE4sizeB7v160006Ev, symObjAddr: 0x5044, symBinAddr: 0x100005DC8, symSize: 0x24 }
  - { offsetInCU: 0x18759, offset: 0x18759, size: 0x8, addend: 0x0, symName: __ZNSt3__19allocatorIPNS_16__hash_node_baseIPNS_11__hash_nodeINS_17__hash_value_typeIciEEPvEEEEE10deallocateB7v160006EPS9_m, symObjAddr: 0x5068, symBinAddr: 0x100005DEC, symSize: 0x70 }
  - { offsetInCU: 0x1879B, offset: 0x1879B, size: 0x8, addend: 0x0, symName: __ZNSt3__117__compressed_pairImNS_9allocatorIPNS_16__hash_node_baseIPNS_11__hash_nodeINS_17__hash_value_typeIciEEPvEEEEEEE6secondB7v160006Ev, symObjAddr: 0x50D8, symBinAddr: 0x100005E5C, symSize: 0x24 }
  - { offsetInCU: 0x187C1, offset: 0x187C1, size: 0x8, addend: 0x0, symName: __ZNSt3__122__compressed_pair_elemINS_9allocatorIPNS_16__hash_node_baseIPNS_11__hash_nodeINS_17__hash_value_typeIciEEPvEEEEEELi1ELb1EE5__getB7v160006Ev, symObjAddr: 0x50FC, symBinAddr: 0x100005E80, symSize: 0x14 }
  - { offsetInCU: 0x187E7, offset: 0x187E7, size: 0x8, addend: 0x0, symName: __ZNSt3__117__compressed_pairImNS_9allocatorIPNS_16__hash_node_baseIPNS_11__hash_nodeINS_17__hash_value_typeIciEEPvEEEEEEE5firstB7v160006Ev, symObjAddr: 0x5110, symBinAddr: 0x100005E94, symSize: 0x24 }
  - { offsetInCU: 0x1880D, offset: 0x1880D, size: 0x8, addend: 0x0, symName: __ZN12mapGeneratorD2Ev, symObjAddr: 0x5134, symBinAddr: 0x100005EB8, symSize: 0x30 }
  - { offsetInCU: 0x18839, offset: 0x18839, size: 0x8, addend: 0x0, symName: __ZNSt3__112basic_stringIcNS_11char_traitsIcEENS_9allocatorIcEEEC2B7v160006Ev, symObjAddr: 0x5164, symBinAddr: 0x100005EE8, symSize: 0x44 }
  - { offsetInCU: 0x18869, offset: 0x18869, size: 0x8, addend: 0x0, symName: __ZNSt3__117__compressed_pairINS_12basic_stringIcNS_11char_traitsIcEENS_9allocatorIcEEE5__repES5_EC1B7v160006INS_18__default_init_tagESA_EEOT_OT0_, symObjAddr: 0x51A8, symBinAddr: 0x100005F2C, symSize: 0x3C }
  - { offsetInCU: 0x188C1, offset: 0x188C1, size: 0x8, addend: 0x0, symName: __ZNSt3__112basic_stringIcNS_11char_traitsIcEENS_9allocatorIcEEE14__default_initB7v160006Ev, symObjAddr: 0x51F4, symBinAddr: 0x100005F78, symSize: 0xB0 }
  - { offsetInCU: 0x18914, offset: 0x18914, size: 0x8, addend: 0x0, symName: __ZNSt3__117__compressed_pairINS_12basic_stringIcNS_11char_traitsIcEENS_9allocatorIcEEE5__repES5_EC2B7v160006INS_18__default_init_tagESA_EEOT_OT0_, symObjAddr: 0x52A4, symBinAddr: 0x100006028, symSize: 0x3C }
  - { offsetInCU: 0x1896C, offset: 0x1896C, size: 0x8, addend: 0x0, symName: __ZNSt3__122__compressed_pair_elemINS_12basic_stringIcNS_11char_traitsIcEENS_9allocatorIcEEE5__repELi0ELb0EEC2B7v160006ENS_18__default_init_tagE, symObjAddr: 0x52E0, symBinAddr: 0x100006064, symSize: 0x14 }
  - { offsetInCU: 0x189A0, offset: 0x189A0, size: 0x8, addend: 0x0, symName: __ZNSt3__122__compressed_pair_elemINS_9allocatorIcEELi1ELb1EEC2B7v160006ENS_18__default_init_tagE, symObjAddr: 0x52F4, symBinAddr: 0x100006078, symSize: 0x2C }
  - { offsetInCU: 0x189D4, offset: 0x189D4, size: 0x8, addend: 0x0, symName: __ZNSt3__19allocatorIcEC2B7v160006Ev, symObjAddr: 0x5320, symBinAddr: 0x1000060A4, symSize: 0x2C }
  - { offsetInCU: 0x189FE, offset: 0x189FE, size: 0x8, addend: 0x0, symName: __ZNSt3__116__non_trivial_ifILb1ENS_9allocatorIcEEEC2B7v160006Ev, symObjAddr: 0x534C, symBinAddr: 0x1000060D0, symSize: 0x14 }
  - { offsetInCU: 0x18A28, offset: 0x18A28, size: 0x8, addend: 0x0, symName: __ZNSt3__117__compressed_pairINS_12basic_stringIcNS_11char_traitsIcEENS_9allocatorIcEEE5__repES5_E5firstB7v160006Ev, symObjAddr: 0x5360, symBinAddr: 0x1000060E4, symSize: 0x24 }
  - { offsetInCU: 0x18A4E, offset: 0x18A4E, size: 0x8, addend: 0x0, symName: __ZNSt3__112basic_stringIcNS_11char_traitsIcEENS_9allocatorIcEEE11__recommendB7v160006Em, symObjAddr: 0x5384, symBinAddr: 0x100006108, symSize: 0x9C }
  - { offsetInCU: 0x18A81, offset: 0x18A81, size: 0x8, addend: 0x0, symName: __ZNSt3__116allocator_traitsINS_9allocatorIcEEE8allocateB7v160006ERS2_m, symObjAddr: 0x5420, symBinAddr: 0x1000061A4, symSize: 0x2C }
  - { offsetInCU: 0x18AB4, offset: 0x18AB4, size: 0x8, addend: 0x0, symName: __ZNSt3__112basic_stringIcNS_11char_traitsIcEENS_9allocatorIcEEE7__allocB7v160006Ev, symObjAddr: 0x544C, symBinAddr: 0x1000061D0, symSize: 0x24 }
  - { offsetInCU: 0x18ADA, offset: 0x18ADA, size: 0x8, addend: 0x0, symName: __ZNSt3__112basic_stringIcNS_11char_traitsIcEENS_9allocatorIcEEE16__begin_lifetimeB7v160006EPcm, symObjAddr: 0x5470, symBinAddr: 0x1000061F4, symSize: 0x14 }
  - { offsetInCU: 0x18B0D, offset: 0x18B0D, size: 0x8, addend: 0x0, symName: __ZNSt3__112basic_stringIcNS_11char_traitsIcEENS_9allocatorIcEEE18__set_long_pointerB7v160006EPc, symObjAddr: 0x5484, symBinAddr: 0x100006208, symSize: 0x38 }
  - { offsetInCU: 0x18B42, offset: 0x18B42, size: 0x8, addend: 0x0, symName: __ZNSt3__112basic_stringIcNS_11char_traitsIcEENS_9allocatorIcEEE14__set_long_capB7v160006Em, symObjAddr: 0x54BC, symBinAddr: 0x100006240, symSize: 0x70 }
  - { offsetInCU: 0x18B77, offset: 0x18B77, size: 0x8, addend: 0x0, symName: __ZNSt3__112basic_stringIcNS_11char_traitsIcEENS_9allocatorIcEEE15__set_long_sizeB7v160006Em, symObjAddr: 0x552C, symBinAddr: 0x1000062B0, symSize: 0x38 }
  - { offsetInCU: 0x18BAC, offset: 0x18BAC, size: 0x8, addend: 0x0, symName: __ZNSt3__122__compressed_pair_elemINS_12basic_stringIcNS_11char_traitsIcEENS_9allocatorIcEEE5__repELi0ELb0EE5__getB7v160006Ev, symObjAddr: 0x5564, symBinAddr: 0x1000062E8, symSize: 0x14 }
  - { offsetInCU: 0x18BD2, offset: 0x18BD2, size: 0x8, addend: 0x0, symName: __ZNSt3__112basic_stringIcNS_11char_traitsIcEENS_9allocatorIcEEE10__align_itB7v160006ILm16EEEmm, symObjAddr: 0x5578, symBinAddr: 0x1000062FC, symSize: 0x1C }
  - { offsetInCU: 0x18C00, offset: 0x18C00, size: 0x8, addend: 0x0, symName: __ZNSt3__19allocatorIcE8allocateB7v160006Em, symObjAddr: 0x5594, symBinAddr: 0x100006318, symSize: 0x84 }
  - { offsetInCU: 0x18C3E, offset: 0x18C3E, size: 0x8, addend: 0x0, symName: __ZNSt3__116allocator_traitsINS_9allocatorIcEEE8max_sizeB7v160006IS2_vEEmRKS2_, symObjAddr: 0x5618, symBinAddr: 0x10000639C, symSize: 0x24 }
  - { offsetInCU: 0x18C6C, offset: 0x18C6C, size: 0x8, addend: 0x0, symName: __ZNKSt3__19allocatorIcE8max_sizeB7v160006Ev, symObjAddr: 0x5698, symBinAddr: 0x10000641C, symSize: 0x14 }
  - { offsetInCU: 0x18C92, offset: 0x18C92, size: 0x8, addend: 0x0, symName: __ZNSt3__117__compressed_pairINS_12basic_stringIcNS_11char_traitsIcEENS_9allocatorIcEEE5__repES5_E6secondB7v160006Ev, symObjAddr: 0x56D0, symBinAddr: 0x100006454, symSize: 0x24 }
  - { offsetInCU: 0x18CB8, offset: 0x18CB8, size: 0x8, addend: 0x0, symName: __ZNSt3__113unordered_mapIciNS_4hashIcEENS_8equal_toIcEENS_9allocatorINS_4pairIKciEEEEEC2B7v160006Ev, symObjAddr: 0x56F4, symBinAddr: 0x100006478, symSize: 0x64 }
  - { offsetInCU: 0x18CE2, offset: 0x18CE2, size: 0x8, addend: 0x0, symName: __ZNSt3__112__hash_tableINS_17__hash_value_typeIciEENS_22__unordered_map_hasherIcS2_NS_4hashIcEENS_8equal_toIcEELb1EEENS_21__unordered_map_equalIcS2_S7_S5_Lb1EEENS_9allocatorIS2_EEEC1Ev, symObjAddr: 0x5758, symBinAddr: 0x1000064DC, symSize: 0x2C }
  - { offsetInCU: 0x18D0E, offset: 0x18D0E, size: 0x8, addend: 0x0, symName: __ZNSt3__112__hash_tableINS_17__hash_value_typeIciEENS_22__unordered_map_hasherIcS2_NS_4hashIcEENS_8equal_toIcEELb1EEENS_21__unordered_map_equalIcS2_S7_S5_Lb1EEENS_9allocatorIS2_EEEC2Ev, symObjAddr: 0x5794, symBinAddr: 0x100006518, symSize: 0xA4 }
  - { offsetInCU: 0x18D3A, offset: 0x18D3A, size: 0x8, addend: 0x0, symName: __ZNSt3__110unique_ptrIA_PNS_16__hash_node_baseIPNS_11__hash_nodeINS_17__hash_value_typeIciEEPvEEEENS_25__bucket_list_deallocatorINS_9allocatorIS9_EEEEEC1B7v160006ILb1EvEEv, symObjAddr: 0x5838, symBinAddr: 0x1000065BC, symSize: 0x2C }
  - { offsetInCU: 0x18D6F, offset: 0x18D6F, size: 0x8, addend: 0x0, symName: __ZNSt3__117__compressed_pairINS_16__hash_node_baseIPNS_11__hash_nodeINS_17__hash_value_typeIciEEPvEEEENS_9allocatorIS6_EEEC1B7v160006ILb1EvEEv, symObjAddr: 0x5864, symBinAddr: 0x1000065E8, symSize: 0x2C }
  - { offsetInCU: 0x18DAA, offset: 0x18DAA, size: 0x8, addend: 0x0, symName: __ZNSt3__117__compressed_pairImNS_22__unordered_map_hasherIcNS_17__hash_value_typeIciEENS_4hashIcEENS_8equal_toIcEELb1EEEEC1B7v160006IiNS_18__default_init_tagEEEOT_OT0_, symObjAddr: 0x5890, symBinAddr: 0x100006614, symSize: 0x3C }
  - { offsetInCU: 0x18E08, offset: 0x18E08, size: 0x8, addend: 0x0, symName: __ZNSt3__117__compressed_pairIfNS_21__unordered_map_equalIcNS_17__hash_value_typeIciEENS_8equal_toIcEENS_4hashIcEELb1EEEEC1B7v160006IfNS_18__default_init_tagEEEOT_OT0_, symObjAddr: 0x58CC, symBinAddr: 0x100006650, symSize: 0x3C }
  - { offsetInCU: 0x18E60, offset: 0x18E60, size: 0x8, addend: 0x0, symName: __ZNSt3__110unique_ptrIA_PNS_16__hash_node_baseIPNS_11__hash_nodeINS_17__hash_value_typeIciEEPvEEEENS_25__bucket_list_deallocatorINS_9allocatorIS9_EEEEEC2B7v160006ILb1EvEEv, symObjAddr: 0x5908, symBinAddr: 0x10000668C, symSize: 0x50 }
  - { offsetInCU: 0x18E9B, offset: 0x18E9B, size: 0x8, addend: 0x0, symName: __ZNSt3__117__compressed_pairIPPNS_16__hash_node_baseIPNS_11__hash_nodeINS_17__hash_value_typeIciEEPvEEEENS_25__bucket_list_deallocatorINS_9allocatorIS9_EEEEEC1B7v160006INS_16__value_init_tagESH_EEOT_OT0_, symObjAddr: 0x5958, symBinAddr: 0x1000066DC, symSize: 0x3C }
  - { offsetInCU: 0x18EF3, offset: 0x18EF3, size: 0x8, addend: 0x0, symName: __ZNSt3__117__compressed_pairIPPNS_16__hash_node_baseIPNS_11__hash_nodeINS_17__hash_value_typeIciEEPvEEEENS_25__bucket_list_deallocatorINS_9allocatorIS9_EEEEEC2B7v160006INS_16__value_init_tagESH_EEOT_OT0_, symObjAddr: 0x5994, symBinAddr: 0x100006718, symSize: 0x40 }
  - { offsetInCU: 0x18F4B, offset: 0x18F4B, size: 0x8, addend: 0x0, symName: __ZNSt3__122__compressed_pair_elemIPPNS_16__hash_node_baseIPNS_11__hash_nodeINS_17__hash_value_typeIciEEPvEEEELi0ELb0EEC2B7v160006ENS_16__value_init_tagE, symObjAddr: 0x59D4, symBinAddr: 0x100006758, symSize: 0x18 }
  - { offsetInCU: 0x18F7F, offset: 0x18F7F, size: 0x8, addend: 0x0, symName: __ZNSt3__122__compressed_pair_elemINS_25__bucket_list_deallocatorINS_9allocatorIPNS_16__hash_node_baseIPNS_11__hash_nodeINS_17__hash_value_typeIciEEPvEEEEEEEELi1ELb0EEC2B7v160006ENS_16__value_init_tagE, symObjAddr: 0x59EC, symBinAddr: 0x100006770, symSize: 0x2C }
  - { offsetInCU: 0x18FB3, offset: 0x18FB3, size: 0x8, addend: 0x0, symName: __ZNSt3__125__bucket_list_deallocatorINS_9allocatorIPNS_16__hash_node_baseIPNS_11__hash_nodeINS_17__hash_value_typeIciEEPvEEEEEEEC1B7v160006Ev, symObjAddr: 0x5A18, symBinAddr: 0x10000679C, symSize: 0x2C }
  - { offsetInCU: 0x18FDD, offset: 0x18FDD, size: 0x8, addend: 0x0, symName: __ZNSt3__125__bucket_list_deallocatorINS_9allocatorIPNS_16__hash_node_baseIPNS_11__hash_nodeINS_17__hash_value_typeIciEEPvEEEEEEEC2B7v160006Ev, symObjAddr: 0x5A44, symBinAddr: 0x1000067C8, symSize: 0x38 }
  - { offsetInCU: 0x19007, offset: 0x19007, size: 0x8, addend: 0x0, symName: __ZNSt3__117__compressed_pairImNS_9allocatorIPNS_16__hash_node_baseIPNS_11__hash_nodeINS_17__hash_value_typeIciEEPvEEEEEEEC1B7v160006IiNS_18__default_init_tagEEEOT_OT0_, symObjAddr: 0x5A7C, symBinAddr: 0x100006800, symSize: 0x3C }
  - { offsetInCU: 0x1905F, offset: 0x1905F, size: 0x8, addend: 0x0, symName: __ZNSt3__117__compressed_pairImNS_9allocatorIPNS_16__hash_node_baseIPNS_11__hash_nodeINS_17__hash_value_typeIciEEPvEEEEEEEC2B7v160006IiNS_18__default_init_tagEEEOT_OT0_, symObjAddr: 0x5AB8, symBinAddr: 0x10000683C, symSize: 0x40 }
  - { offsetInCU: 0x190B7, offset: 0x190B7, size: 0x8, addend: 0x0, symName: __ZNSt3__122__compressed_pair_elemImLi0ELb0EEC2B7v160006IivEEOT_, symObjAddr: 0x5AF8, symBinAddr: 0x10000687C, symSize: 0x24 }
  - { offsetInCU: 0x190F9, offset: 0x190F9, size: 0x8, addend: 0x0, symName: __ZNSt3__122__compressed_pair_elemINS_9allocatorIPNS_16__hash_node_baseIPNS_11__hash_nodeINS_17__hash_value_typeIciEEPvEEEEEELi1ELb1EEC2B7v160006ENS_18__default_init_tagE, symObjAddr: 0x5B1C, symBinAddr: 0x1000068A0, symSize: 0x2C }
  - { offsetInCU: 0x1912D, offset: 0x1912D, size: 0x8, addend: 0x0, symName: __ZNSt3__19allocatorIPNS_16__hash_node_baseIPNS_11__hash_nodeINS_17__hash_value_typeIciEEPvEEEEEC2B7v160006Ev, symObjAddr: 0x5B48, symBinAddr: 0x1000068CC, symSize: 0x2C }
  - { offsetInCU: 0x19157, offset: 0x19157, size: 0x8, addend: 0x0, symName: __ZNSt3__116__non_trivial_ifILb1ENS_9allocatorIPNS_16__hash_node_baseIPNS_11__hash_nodeINS_17__hash_value_typeIciEEPvEEEEEEEC2B7v160006Ev, symObjAddr: 0x5B74, symBinAddr: 0x1000068F8, symSize: 0x14 }
  - { offsetInCU: 0x19181, offset: 0x19181, size: 0x8, addend: 0x0, symName: __ZNSt3__117__compressed_pairINS_16__hash_node_baseIPNS_11__hash_nodeINS_17__hash_value_typeIciEEPvEEEENS_9allocatorIS6_EEEC2B7v160006ILb1EvEEv, symObjAddr: 0x5B88, symBinAddr: 0x10000690C, symSize: 0x34 }
  - { offsetInCU: 0x191B6, offset: 0x191B6, size: 0x8, addend: 0x0, symName: __ZNSt3__122__compressed_pair_elemINS_16__hash_node_baseIPNS_11__hash_nodeINS_17__hash_value_typeIciEEPvEEEELi0ELb0EEC2B7v160006ENS_16__value_init_tagE, symObjAddr: 0x5BBC, symBinAddr: 0x100006940, symSize: 0x2C }
  - { offsetInCU: 0x191EA, offset: 0x191EA, size: 0x8, addend: 0x0, symName: __ZNSt3__122__compressed_pair_elemINS_9allocatorINS_11__hash_nodeINS_17__hash_value_typeIciEEPvEEEELi1ELb1EEC2B7v160006ENS_16__value_init_tagE, symObjAddr: 0x5BE8, symBinAddr: 0x10000696C, symSize: 0x2C }
  - { offsetInCU: 0x1921E, offset: 0x1921E, size: 0x8, addend: 0x0, symName: __ZNSt3__116__hash_node_baseIPNS_11__hash_nodeINS_17__hash_value_typeIciEEPvEEEC1B7v160006Ev, symObjAddr: 0x5C14, symBinAddr: 0x100006998, symSize: 0x2C }
  - { offsetInCU: 0x19248, offset: 0x19248, size: 0x8, addend: 0x0, symName: __ZNSt3__116__hash_node_baseIPNS_11__hash_nodeINS_17__hash_value_typeIciEEPvEEEC2B7v160006Ev, symObjAddr: 0x5C40, symBinAddr: 0x1000069C4, symSize: 0x18 }
  - { offsetInCU: 0x19272, offset: 0x19272, size: 0x8, addend: 0x0, symName: __ZNSt3__19allocatorINS_11__hash_nodeINS_17__hash_value_typeIciEEPvEEEC2B7v160006Ev, symObjAddr: 0x5C58, symBinAddr: 0x1000069DC, symSize: 0x2C }
  - { offsetInCU: 0x1929C, offset: 0x1929C, size: 0x8, addend: 0x0, symName: __ZNSt3__116__non_trivial_ifILb1ENS_9allocatorINS_11__hash_nodeINS_17__hash_value_typeIciEEPvEEEEEC2B7v160006Ev, symObjAddr: 0x5C84, symBinAddr: 0x100006A08, symSize: 0x14 }
  - { offsetInCU: 0x192C6, offset: 0x192C6, size: 0x8, addend: 0x0, symName: __ZNSt3__117__compressed_pairImNS_22__unordered_map_hasherIcNS_17__hash_value_typeIciEENS_4hashIcEENS_8equal_toIcEELb1EEEEC2B7v160006IiNS_18__default_init_tagEEEOT_OT0_, symObjAddr: 0x5C98, symBinAddr: 0x100006A1C, symSize: 0x40 }
  - { offsetInCU: 0x1931E, offset: 0x1931E, size: 0x8, addend: 0x0, symName: __ZNSt3__122__compressed_pair_elemINS_22__unordered_map_hasherIcNS_17__hash_value_typeIciEENS_4hashIcEENS_8equal_toIcEELb1EEELi1ELb1EEC2B7v160006ENS_18__default_init_tagE, symObjAddr: 0x5CD8, symBinAddr: 0x100006A5C, symSize: 0x2C }
  - { offsetInCU: 0x19352, offset: 0x19352, size: 0x8, addend: 0x0, symName: __ZNSt3__122__unordered_map_hasherIcNS_17__hash_value_typeIciEENS_4hashIcEENS_8equal_toIcEELb1EEC2B7v160006Ev, symObjAddr: 0x5D04, symBinAddr: 0x100006A88, symSize: 0x14 }
  - { offsetInCU: 0x1937C, offset: 0x1937C, size: 0x8, addend: 0x0, symName: __ZNSt3__117__compressed_pairIfNS_21__unordered_map_equalIcNS_17__hash_value_typeIciEENS_8equal_toIcEENS_4hashIcEELb1EEEEC2B7v160006IfNS_18__default_init_tagEEEOT_OT0_, symObjAddr: 0x5D18, symBinAddr: 0x100006A9C, symSize: 0x40 }
  - { offsetInCU: 0x193D4, offset: 0x193D4, size: 0x8, addend: 0x0, symName: __ZNSt3__122__compressed_pair_elemIfLi0ELb0EEC2B7v160006IfvEEOT_, symObjAddr: 0x5D58, symBinAddr: 0x100006ADC, symSize: 0x24 }
  - { offsetInCU: 0x19416, offset: 0x19416, size: 0x8, addend: 0x0, symName: __ZNSt3__122__compressed_pair_elemINS_21__unordered_map_equalIcNS_17__hash_value_typeIciEENS_8equal_toIcEENS_4hashIcEELb1EEELi1ELb1EEC2B7v160006ENS_18__default_init_tagE, symObjAddr: 0x5D7C, symBinAddr: 0x100006B00, symSize: 0x2C }
  - { offsetInCU: 0x1944A, offset: 0x1944A, size: 0x8, addend: 0x0, symName: __ZNSt3__121__unordered_map_equalIcNS_17__hash_value_typeIciEENS_8equal_toIcEENS_4hashIcEELb1EEC2B7v160006Ev, symObjAddr: 0x5DA8, symBinAddr: 0x100006B2C, symSize: 0x14 }
  - { offsetInCU: 0x19474, offset: 0x19474, size: 0x8, addend: 0x0, symName: __ZNSt3__113unordered_mapIciNS_4hashIcEENS_8equal_toIcEENS_9allocatorINS_4pairIKciEEEEE4findB7v160006ERS7_, symObjAddr: 0x5DBC, symBinAddr: 0x100006B40, symSize: 0x40 }
  - { offsetInCU: 0x194A9, offset: 0x194A9, size: 0x8, addend: 0x0, symName: __ZNSt3__113unordered_mapIciNS_4hashIcEENS_8equal_toIcEENS_9allocatorINS_4pairIKciEEEEE3endB7v160006Ev, symObjAddr: 0x5E2C, symBinAddr: 0x100006BB0, symSize: 0x38 }
  - { offsetInCU: 0x194CF, offset: 0x194CF, size: 0x8, addend: 0x0, symName: __ZNKSt3__119__hash_map_iteratorINS_15__hash_iteratorIPNS_11__hash_nodeINS_17__hash_value_typeIciEEPvEEEEEptB7v160006Ev, symObjAddr: 0x5E64, symBinAddr: 0x100006BE8, symSize: 0x2C }
  - { offsetInCU: 0x194F5, offset: 0x194F5, size: 0x8, addend: 0x0, symName: __ZNSt3__113unordered_mapIciNS_4hashIcEENS_8equal_toIcEENS_9allocatorINS_4pairIKciEEEEE25__construct_node_with_keyERS7_, symObjAddr: 0x5E90, symBinAddr: 0x100006C14, symSize: 0x144 }
  - { offsetInCU: 0x1954B, offset: 0x1954B, size: 0x8, addend: 0x0, symName: __ZNSt3__112__hash_tableINS_17__hash_value_typeIciEENS_22__unordered_map_hasherIcS2_NS_4hashIcEENS_8equal_toIcEELb1EEENS_21__unordered_map_equalIcS2_S7_S5_Lb1EEENS_9allocatorIS2_EEE20__node_insert_uniqueEPNS_11__hash_nodeIS2_PvEE, symObjAddr: 0x5FD4, symBinAddr: 0x100006D58, symSize: 0xC8 }
  - { offsetInCU: 0x195A0, offset: 0x195A0, size: 0x8, addend: 0x0, symName: __ZNKSt3__110unique_ptrINS_11__hash_nodeINS_17__hash_value_typeIciEEPvEENS_26__hash_map_node_destructorINS_9allocatorIS5_EEEEE3getB7v160006Ev, symObjAddr: 0x609C, symBinAddr: 0x100006E20, symSize: 0x28 }
  - { offsetInCU: 0x195C6, offset: 0x195C6, size: 0x8, addend: 0x0, symName: __ZNSt3__14pairINS_19__hash_map_iteratorINS_15__hash_iteratorIPNS_11__hash_nodeINS_17__hash_value_typeIciEEPvEEEEEEbEC1B7v160006IS9_bEERKNS0_IT_T0_EE, symObjAddr: 0x60C4, symBinAddr: 0x100006E48, symSize: 0x34 }
  - { offsetInCU: 0x19610, offset: 0x19610, size: 0x8, addend: 0x0, symName: __ZNSt3__110unique_ptrINS_11__hash_nodeINS_17__hash_value_typeIciEEPvEENS_26__hash_map_node_destructorINS_9allocatorIS5_EEEEE7releaseB7v160006Ev, symObjAddr: 0x60F8, symBinAddr: 0x100006E7C, symSize: 0x44 }
  - { offsetInCU: 0x19645, offset: 0x19645, size: 0x8, addend: 0x0, symName: __ZNSt3__110unique_ptrINS_11__hash_nodeINS_17__hash_value_typeIciEEPvEENS_26__hash_map_node_destructorINS_9allocatorIS5_EEEEED1B7v160006Ev, symObjAddr: 0x613C, symBinAddr: 0x100006EC0, symSize: 0x2C }
  - { offsetInCU: 0x1966F, offset: 0x1966F, size: 0x8, addend: 0x0, symName: __ZNSt3__112__hash_tableINS_17__hash_value_typeIciEENS_22__unordered_map_hasherIcS2_NS_4hashIcEENS_8equal_toIcEELb1EEENS_21__unordered_map_equalIcS2_S7_S5_Lb1EEENS_9allocatorIS2_EEE4findIcEENS_15__hash_iteratorIPNS_11__hash_nodeIS2_PvEEEERKT_, symObjAddr: 0x6168, symBinAddr: 0x100006EEC, symSize: 0x1B4 }
  - { offsetInCU: 0x196FA, offset: 0x196FA, size: 0x8, addend: 0x0, symName: __ZNSt3__119__hash_map_iteratorINS_15__hash_iteratorIPNS_11__hash_nodeINS_17__hash_value_typeIciEEPvEEEEEC1B7v160006ES8_, symObjAddr: 0x631C, symBinAddr: 0x1000070A0, symSize: 0x34 }
  - { offsetInCU: 0x19733, offset: 0x19733, size: 0x8, addend: 0x0, symName: __ZNSt3__112__hash_tableINS_17__hash_value_typeIciEENS_22__unordered_map_hasherIcS2_NS_4hashIcEENS_8equal_toIcEELb1EEENS_21__unordered_map_equalIcS2_S7_S5_Lb1EEENS_9allocatorIS2_EEE13hash_functionB7v160006Ev, symObjAddr: 0x6350, symBinAddr: 0x1000070D4, symSize: 0x28 }
  - { offsetInCU: 0x19759, offset: 0x19759, size: 0x8, addend: 0x0, symName: __ZNKSt3__122__unordered_map_hasherIcNS_17__hash_value_typeIciEENS_4hashIcEENS_8equal_toIcEELb1EEclB7v160006ERKc, symObjAddr: 0x6378, symBinAddr: 0x1000070FC, symSize: 0x30 }
  - { offsetInCU: 0x1978E, offset: 0x1978E, size: 0x8, addend: 0x0, symName: __ZNKSt3__112__hash_tableINS_17__hash_value_typeIciEENS_22__unordered_map_hasherIcS2_NS_4hashIcEENS_8equal_toIcEELb1EEENS_21__unordered_map_equalIcS2_S7_S5_Lb1EEENS_9allocatorIS2_EEE12bucket_countB7v160006Ev, symObjAddr: 0x63A8, symBinAddr: 0x10000712C, symSize: 0x28 }
  - { offsetInCU: 0x197B4, offset: 0x197B4, size: 0x8, addend: 0x0, symName: __ZNKSt3__110unique_ptrIA_PNS_16__hash_node_baseIPNS_11__hash_nodeINS_17__hash_value_typeIciEEPvEEEENS_25__bucket_list_deallocatorINS_9allocatorIS9_EEEEEixB7v160006Em, symObjAddr: 0x6468, symBinAddr: 0x1000071EC, symSize: 0x34 }
  - { offsetInCU: 0x197E9, offset: 0x197E9, size: 0x8, addend: 0x0, symName: __ZNKSt3__116__hash_node_baseIPNS_11__hash_nodeINS_17__hash_value_typeIciEEPvEEE6__hashB7v160006Ev, symObjAddr: 0x649C, symBinAddr: 0x100007220, symSize: 0x18 }
  - { offsetInCU: 0x1980F, offset: 0x1980F, size: 0x8, addend: 0x0, symName: __ZNSt3__112__hash_tableINS_17__hash_value_typeIciEENS_22__unordered_map_hasherIcS2_NS_4hashIcEENS_8equal_toIcEELb1EEENS_21__unordered_map_equalIcS2_S7_S5_Lb1EEENS_9allocatorIS2_EEE6key_eqB7v160006Ev, symObjAddr: 0x64B4, symBinAddr: 0x100007238, symSize: 0x28 }
  - { offsetInCU: 0x19835, offset: 0x19835, size: 0x8, addend: 0x0, symName: __ZNKSt3__121__unordered_map_equalIcNS_17__hash_value_typeIciEENS_8equal_toIcEENS_4hashIcEELb1EEclB7v160006ERKS2_RKc, symObjAddr: 0x64DC, symBinAddr: 0x100007260, symSize: 0x48 }
  - { offsetInCU: 0x19879, offset: 0x19879, size: 0x8, addend: 0x0, symName: __ZNSt3__115__hash_iteratorIPNS_11__hash_nodeINS_17__hash_value_typeIciEEPvEEEC1B7v160006EPNS_16__hash_node_baseIS6_EEPKv, symObjAddr: 0x6524, symBinAddr: 0x1000072A8, symSize: 0x3C }
  - { offsetInCU: 0x198C1, offset: 0x198C1, size: 0x8, addend: 0x0, symName: __ZNSt3__112__hash_tableINS_17__hash_value_typeIciEENS_22__unordered_map_hasherIcS2_NS_4hashIcEENS_8equal_toIcEELb1EEENS_21__unordered_map_equalIcS2_S7_S5_Lb1EEENS_9allocatorIS2_EEE3endEv, symObjAddr: 0x6560, symBinAddr: 0x1000072E4, symSize: 0x30 }
  - { offsetInCU: 0x198E9, offset: 0x198E9, size: 0x8, addend: 0x0, symName: __ZNSt3__117__compressed_pairImNS_22__unordered_map_hasherIcNS_17__hash_value_typeIciEENS_4hashIcEENS_8equal_toIcEELb1EEEE6secondB7v160006Ev, symObjAddr: 0x6590, symBinAddr: 0x100007314, symSize: 0x24 }
  - { offsetInCU: 0x1990F, offset: 0x1990F, size: 0x8, addend: 0x0, symName: __ZNSt3__122__compressed_pair_elemINS_22__unordered_map_hasherIcNS_17__hash_value_typeIciEENS_4hashIcEENS_8equal_toIcEELb1EEELi1ELb1EE5__getB7v160006Ev, symObjAddr: 0x65B4, symBinAddr: 0x100007338, symSize: 0x14 }
  - { offsetInCU: 0x19935, offset: 0x19935, size: 0x8, addend: 0x0, symName: __ZNKSt3__14hashIcEclB7v160006Ec, symObjAddr: 0x65C8, symBinAddr: 0x10000734C, symSize: 0x18 }
  - { offsetInCU: 0x1996A, offset: 0x1996A, size: 0x8, addend: 0x0, symName: __ZNKSt3__110unique_ptrIA_PNS_16__hash_node_baseIPNS_11__hash_nodeINS_17__hash_value_typeIciEEPvEEEENS_25__bucket_list_deallocatorINS_9allocatorIS9_EEEEE11get_deleterB7v160006Ev, symObjAddr: 0x65E0, symBinAddr: 0x100007364, symSize: 0x24 }
  - { offsetInCU: 0x19990, offset: 0x19990, size: 0x8, addend: 0x0, symName: __ZNKSt3__125__bucket_list_deallocatorINS_9allocatorIPNS_16__hash_node_baseIPNS_11__hash_nodeINS_17__hash_value_typeIciEEPvEEEEEEE4sizeB7v160006Ev, symObjAddr: 0x6604, symBinAddr: 0x100007388, symSize: 0x28 }
  - { offsetInCU: 0x199B6, offset: 0x199B6, size: 0x8, addend: 0x0, symName: __ZNKSt3__117__compressed_pairIPPNS_16__hash_node_baseIPNS_11__hash_nodeINS_17__hash_value_typeIciEEPvEEEENS_25__bucket_list_deallocatorINS_9allocatorIS9_EEEEE6secondB7v160006Ev, symObjAddr: 0x662C, symBinAddr: 0x1000073B0, symSize: 0x28 }
  - { offsetInCU: 0x199DC, offset: 0x199DC, size: 0x8, addend: 0x0, symName: __ZNKSt3__122__compressed_pair_elemINS_25__bucket_list_deallocatorINS_9allocatorIPNS_16__hash_node_baseIPNS_11__hash_nodeINS_17__hash_value_typeIciEEPvEEEEEEEELi1ELb0EE5__getB7v160006Ev, symObjAddr: 0x6654, symBinAddr: 0x1000073D8, symSize: 0x14 }
  - { offsetInCU: 0x19A02, offset: 0x19A02, size: 0x8, addend: 0x0, symName: __ZNKSt3__117__compressed_pairImNS_9allocatorIPNS_16__hash_node_baseIPNS_11__hash_nodeINS_17__hash_value_typeIciEEPvEEEEEEE5firstB7v160006Ev, symObjAddr: 0x6668, symBinAddr: 0x1000073EC, symSize: 0x24 }
  - { offsetInCU: 0x19A28, offset: 0x19A28, size: 0x8, addend: 0x0, symName: __ZNKSt3__117__compressed_pairIPPNS_16__hash_node_baseIPNS_11__hash_nodeINS_17__hash_value_typeIciEEPvEEEENS_25__bucket_list_deallocatorINS_9allocatorIS9_EEEEE5firstB7v160006Ev, symObjAddr: 0x668C, symBinAddr: 0x100007410, symSize: 0x24 }
  - { offsetInCU: 0x19A4E, offset: 0x19A4E, size: 0x8, addend: 0x0, symName: __ZNKSt3__122__compressed_pair_elemIPPNS_16__hash_node_baseIPNS_11__hash_nodeINS_17__hash_value_typeIciEEPvEEEELi0ELb0EE5__getB7v160006Ev, symObjAddr: 0x66B0, symBinAddr: 0x100007434, symSize: 0x14 }
  - { offsetInCU: 0x19A74, offset: 0x19A74, size: 0x8, addend: 0x0, symName: __ZNSt3__117__compressed_pairIfNS_21__unordered_map_equalIcNS_17__hash_value_typeIciEENS_8equal_toIcEENS_4hashIcEELb1EEEE6secondB7v160006Ev, symObjAddr: 0x66C4, symBinAddr: 0x100007448, symSize: 0x24 }
  - { offsetInCU: 0x19A9A, offset: 0x19A9A, size: 0x8, addend: 0x0, symName: __ZNSt3__122__compressed_pair_elemINS_21__unordered_map_equalIcNS_17__hash_value_typeIciEENS_8equal_toIcEENS_4hashIcEELb1EEELi1ELb1EE5__getB7v160006Ev, symObjAddr: 0x66E8, symBinAddr: 0x10000746C, symSize: 0x14 }
  - { offsetInCU: 0x19AC0, offset: 0x19AC0, size: 0x8, addend: 0x0, symName: __ZNKSt3__18equal_toIcEclB7v160006ERKcS3_, symObjAddr: 0x66FC, symBinAddr: 0x100007480, symSize: 0x34 }
  - { offsetInCU: 0x19B04, offset: 0x19B04, size: 0x8, addend: 0x0, symName: __ZNKSt3__117__hash_value_typeIciE11__get_valueB7v160006Ev, symObjAddr: 0x6730, symBinAddr: 0x1000074B4, symSize: 0x14 }
  - { offsetInCU: 0x19B2A, offset: 0x19B2A, size: 0x8, addend: 0x0, symName: __ZNSt3__115__hash_iteratorIPNS_11__hash_nodeINS_17__hash_value_typeIciEEPvEEEC2B7v160006EPNS_16__hash_node_baseIS6_EEPKv, symObjAddr: 0x6744, symBinAddr: 0x1000074C8, symSize: 0x24 }
  - { offsetInCU: 0x19B72, offset: 0x19B72, size: 0x8, addend: 0x0, symName: __ZNSt3__119__hash_map_iteratorINS_15__hash_iteratorIPNS_11__hash_nodeINS_17__hash_value_typeIciEEPvEEEEEC2B7v160006ES8_, symObjAddr: 0x6768, symBinAddr: 0x1000074EC, symSize: 0x20 }
  - { offsetInCU: 0x19BAB, offset: 0x19BAB, size: 0x8, addend: 0x0, symName: __ZNSt3__114pointer_traitsIPNS_4pairIKciEEE10pointer_toB7v160006ERS3_, symObjAddr: 0x67EC, symBinAddr: 0x100007570, symSize: 0x14 }
  - { offsetInCU: 0x19BCE, offset: 0x19BCE, size: 0x8, addend: 0x0, symName: __ZNKSt3__115__hash_iteratorIPNS_11__hash_nodeINS_17__hash_value_typeIciEEPvEEEptB7v160006Ev, symObjAddr: 0x6800, symBinAddr: 0x100007584, symSize: 0x30 }
  - { offsetInCU: 0x19BF4, offset: 0x19BF4, size: 0x8, addend: 0x0, symName: __ZNSt3__114pointer_traitsIPNS_17__hash_value_typeIciEEE10pointer_toB7v160006ERS2_, symObjAddr: 0x6830, symBinAddr: 0x1000075B4, symSize: 0x14 }
  - { offsetInCU: 0x19C17, offset: 0x19C17, size: 0x8, addend: 0x0, symName: __ZNSt3__116allocator_traitsINS_9allocatorINS_11__hash_nodeINS_17__hash_value_typeIciEEPvEEEEE8allocateB7v160006ERS7_m, symObjAddr: 0x6844, symBinAddr: 0x1000075C8, symSize: 0x2C }
  - { offsetInCU: 0x19C4A, offset: 0x19C4A, size: 0x8, addend: 0x0, symName: __ZNSt3__126__hash_map_node_destructorINS_9allocatorINS_11__hash_nodeINS_17__hash_value_typeIciEEPvEEEEEC1B7v160006ERS7_, symObjAddr: 0x6870, symBinAddr: 0x1000075F4, symSize: 0x34 }
  - { offsetInCU: 0x19C89, offset: 0x19C89, size: 0x8, addend: 0x0, symName: __ZNSt3__110unique_ptrINS_11__hash_nodeINS_17__hash_value_typeIciEEPvEENS_26__hash_map_node_destructorINS_9allocatorIS5_EEEEEC1B7v160006ILb1EvEEPS5_NS_16__dependent_typeINS_27__unique_ptr_deleter_sfinaeIS9_EEXT_EE20__good_rval_ref_typeE, symObjAddr: 0x68A4, symBinAddr: 0x100007628, symSize: 0x3C }
  - { offsetInCU: 0x19CDA, offset: 0x19CDA, size: 0x8, addend: 0x0, symName: __ZNSt3__116allocator_traitsINS_9allocatorINS_11__hash_nodeINS_17__hash_value_typeIciEEPvEEEEE9constructB7v160006IKcJRSA_EvEEvRS7_PT_DpOT0_, symObjAddr: 0x68E0, symBinAddr: 0x100007664, symSize: 0x34 }
  - { offsetInCU: 0x19D31, offset: 0x19D31, size: 0x8, addend: 0x0, symName: __ZNKSt3__110unique_ptrINS_11__hash_nodeINS_17__hash_value_typeIciEEPvEENS_26__hash_map_node_destructorINS_9allocatorIS5_EEEEEptB7v160006Ev, symObjAddr: 0x6914, symBinAddr: 0x100007698, symSize: 0x28 }
  - { offsetInCU: 0x19D57, offset: 0x19D57, size: 0x8, addend: 0x0, symName: __ZNSt3__110unique_ptrINS_11__hash_nodeINS_17__hash_value_typeIciEEPvEENS_26__hash_map_node_destructorINS_9allocatorIS5_EEEEE11get_deleterB7v160006Ev, symObjAddr: 0x693C, symBinAddr: 0x1000076C0, symSize: 0x24 }
  - { offsetInCU: 0x19D7D, offset: 0x19D7D, size: 0x8, addend: 0x0, symName: __ZNSt3__116allocator_traitsINS_9allocatorINS_11__hash_nodeINS_17__hash_value_typeIciEEPvEEEEE9constructB7v160006IiJEvEEvRS7_PT_DpOT0_, symObjAddr: 0x6960, symBinAddr: 0x1000076E4, symSize: 0x2C }
  - { offsetInCU: 0x19DBF, offset: 0x19DBF, size: 0x8, addend: 0x0, symName: __ZNSt3__19allocatorINS_11__hash_nodeINS_17__hash_value_typeIciEEPvEEE8allocateB7v160006Em, symObjAddr: 0x698C, symBinAddr: 0x100007710, symSize: 0x8C }
  - { offsetInCU: 0x19DFD, offset: 0x19DFD, size: 0x8, addend: 0x0, symName: __ZNSt3__116allocator_traitsINS_9allocatorINS_11__hash_nodeINS_17__hash_value_typeIciEEPvEEEEE8max_sizeB7v160006IS7_vEEmRKS7_, symObjAddr: 0x6A18, symBinAddr: 0x10000779C, symSize: 0x24 }
  - { offsetInCU: 0x19E2B, offset: 0x19E2B, size: 0x8, addend: 0x0, symName: __ZNKSt3__19allocatorINS_11__hash_nodeINS_17__hash_value_typeIciEEPvEEE8max_sizeB7v160006Ev, symObjAddr: 0x6A3C, symBinAddr: 0x1000077C0, symSize: 0x18 }
  - { offsetInCU: 0x19E51, offset: 0x19E51, size: 0x8, addend: 0x0, symName: __ZNSt3__126__hash_map_node_destructorINS_9allocatorINS_11__hash_nodeINS_17__hash_value_typeIciEEPvEEEEEC2B7v160006ERS7_, symObjAddr: 0x6A54, symBinAddr: 0x1000077D8, symSize: 0x28 }
  - { offsetInCU: 0x19E8A, offset: 0x19E8A, size: 0x8, addend: 0x0, symName: __ZNSt3__110unique_ptrINS_11__hash_nodeINS_17__hash_value_typeIciEEPvEENS_26__hash_map_node_destructorINS_9allocatorIS5_EEEEEC2B7v160006ILb1EvEEPS5_NS_16__dependent_typeINS_27__unique_ptr_deleter_sfinaeIS9_EEXT_EE20__good_rval_ref_typeE, symObjAddr: 0x6A7C, symBinAddr: 0x100007800, symSize: 0x5C }
  - { offsetInCU: 0x19EDB, offset: 0x19EDB, size: 0x8, addend: 0x0, symName: __ZNSt3__117__compressed_pairIPNS_11__hash_nodeINS_17__hash_value_typeIciEEPvEENS_26__hash_map_node_destructorINS_9allocatorIS5_EEEEEC1B7v160006IRS6_SA_EEOT_OT0_, symObjAddr: 0x6AD8, symBinAddr: 0x10000785C, symSize: 0x3C }
  - { offsetInCU: 0x19F33, offset: 0x19F33, size: 0x8, addend: 0x0, symName: __ZNSt3__117__compressed_pairIPNS_11__hash_nodeINS_17__hash_value_typeIciEEPvEENS_26__hash_map_node_destructorINS_9allocatorIS5_EEEEEC2B7v160006IRS6_SA_EEOT_OT0_, symObjAddr: 0x6B14, symBinAddr: 0x100007898, symSize: 0x48 }
  - { offsetInCU: 0x19F8B, offset: 0x19F8B, size: 0x8, addend: 0x0, symName: __ZNSt3__122__compressed_pair_elemIPNS_11__hash_nodeINS_17__hash_value_typeIciEEPvEELi0ELb0EEC2B7v160006IRS6_vEEOT_, symObjAddr: 0x6B5C, symBinAddr: 0x1000078E0, symSize: 0x24 }
  - { offsetInCU: 0x19FCD, offset: 0x19FCD, size: 0x8, addend: 0x0, symName: __ZNSt3__122__compressed_pair_elemINS_26__hash_map_node_destructorINS_9allocatorINS_11__hash_nodeINS_17__hash_value_typeIciEEPvEEEEEELi1ELb0EEC2B7v160006IS9_vEEOT_, symObjAddr: 0x6B80, symBinAddr: 0x100007904, symSize: 0x24 }
  - { offsetInCU: 0x1A00F, offset: 0x1A00F, size: 0x8, addend: 0x0, symName: __ZNSt3__19allocatorINS_11__hash_nodeINS_17__hash_value_typeIciEEPvEEE9constructB7v160006IKcJRS8_EEEvPT_DpOT0_, symObjAddr: 0x6BA4, symBinAddr: 0x100007928, symSize: 0x28 }
  - { offsetInCU: 0x1A065, offset: 0x1A065, size: 0x8, addend: 0x0, symName: __ZNKSt3__117__compressed_pairIPNS_11__hash_nodeINS_17__hash_value_typeIciEEPvEENS_26__hash_map_node_destructorINS_9allocatorIS5_EEEEE5firstB7v160006Ev, symObjAddr: 0x6BCC, symBinAddr: 0x100007950, symSize: 0x24 }
  - { offsetInCU: 0x1A08B, offset: 0x1A08B, size: 0x8, addend: 0x0, symName: __ZNKSt3__122__compressed_pair_elemIPNS_11__hash_nodeINS_17__hash_value_typeIciEEPvEELi0ELb0EE5__getB7v160006Ev, symObjAddr: 0x6BF0, symBinAddr: 0x100007974, symSize: 0x14 }
  - { offsetInCU: 0x1A0B1, offset: 0x1A0B1, size: 0x8, addend: 0x0, symName: __ZNSt3__117__compressed_pairIPNS_11__hash_nodeINS_17__hash_value_typeIciEEPvEENS_26__hash_map_node_destructorINS_9allocatorIS5_EEEEE6secondB7v160006Ev, symObjAddr: 0x6C04, symBinAddr: 0x100007988, symSize: 0x28 }
  - { offsetInCU: 0x1A0D7, offset: 0x1A0D7, size: 0x8, addend: 0x0, symName: __ZNSt3__122__compressed_pair_elemINS_26__hash_map_node_destructorINS_9allocatorINS_11__hash_nodeINS_17__hash_value_typeIciEEPvEEEEEELi1ELb0EE5__getB7v160006Ev, symObjAddr: 0x6C2C, symBinAddr: 0x1000079B0, symSize: 0x14 }
  - { offsetInCU: 0x1A0FD, offset: 0x1A0FD, size: 0x8, addend: 0x0, symName: __ZNSt3__19allocatorINS_11__hash_nodeINS_17__hash_value_typeIciEEPvEEE9constructB7v160006IiJEEEvPT_DpOT0_, symObjAddr: 0x6C40, symBinAddr: 0x1000079C4, symSize: 0x1C }
  - { offsetInCU: 0x1A13F, offset: 0x1A13F, size: 0x8, addend: 0x0, symName: __ZNKSt3__122__unordered_map_hasherIcNS_17__hash_value_typeIciEENS_4hashIcEENS_8equal_toIcEELb1EEclB7v160006ERKS2_, symObjAddr: 0x6C5C, symBinAddr: 0x1000079E0, symSize: 0x40 }
  - { offsetInCU: 0x1A174, offset: 0x1A174, size: 0x8, addend: 0x0, symName: __ZNSt3__112__hash_tableINS_17__hash_value_typeIciEENS_22__unordered_map_hasherIcS2_NS_4hashIcEENS_8equal_toIcEELb1EEENS_21__unordered_map_equalIcS2_S7_S5_Lb1EEENS_9allocatorIS2_EEE28__node_insert_unique_prepareB7v160006EmRS2_, symObjAddr: 0x6C9C, symBinAddr: 0x100007A20, symSize: 0x244 }
  - { offsetInCU: 0x1A1F6, offset: 0x1A1F6, size: 0x8, addend: 0x0, symName: __ZNSt3__112__hash_tableINS_17__hash_value_typeIciEENS_22__unordered_map_hasherIcS2_NS_4hashIcEENS_8equal_toIcEELb1EEENS_21__unordered_map_equalIcS2_S7_S5_Lb1EEENS_9allocatorIS2_EEE28__node_insert_unique_performB7v160006EPNS_11__hash_nodeIS2_PvEE, symObjAddr: 0x6EE0, symBinAddr: 0x100007C64, symSize: 0x154 }
  - { offsetInCU: 0x1A25A, offset: 0x1A25A, size: 0x8, addend: 0x0, symName: __ZNSt3__116__hash_node_baseIPNS_11__hash_nodeINS_17__hash_value_typeIciEEPvEEE5__ptrB7v160006Ev, symObjAddr: 0x7034, symBinAddr: 0x100007DB8, symSize: 0x24 }
  - { offsetInCU: 0x1A280, offset: 0x1A280, size: 0x8, addend: 0x0, symName: __ZNSt3__14pairINS_15__hash_iteratorIPNS_11__hash_nodeINS_17__hash_value_typeIciEEPvEEEEbEC1B7v160006ERKS8_RKb, symObjAddr: 0x7058, symBinAddr: 0x100007DDC, symSize: 0x3C }
  - { offsetInCU: 0x1A2C6, offset: 0x1A2C6, size: 0x8, addend: 0x0, symName: __ZNKSt3__121__unordered_map_equalIcNS_17__hash_value_typeIciEENS_8equal_toIcEENS_4hashIcEELb1EEclB7v160006ERKS2_S9_, symObjAddr: 0x7094, symBinAddr: 0x100007E18, symSize: 0x54 }
  - { offsetInCU: 0x1A30A, offset: 0x1A30A, size: 0x8, addend: 0x0, symName: __ZNSt3__112__hash_tableINS_17__hash_value_typeIciEENS_22__unordered_map_hasherIcS2_NS_4hashIcEENS_8equal_toIcEELb1EEENS_21__unordered_map_equalIcS2_S7_S5_Lb1EEENS_9allocatorIS2_EEE4sizeB7v160006Ev, symObjAddr: 0x70E8, symBinAddr: 0x100007E6C, symSize: 0x28 }
  - { offsetInCU: 0x1A330, offset: 0x1A330, size: 0x8, addend: 0x0, symName: __ZNSt3__112__hash_tableINS_17__hash_value_typeIciEENS_22__unordered_map_hasherIcS2_NS_4hashIcEENS_8equal_toIcEELb1EEENS_21__unordered_map_equalIcS2_S7_S5_Lb1EEENS_9allocatorIS2_EEE15max_load_factorB7v160006Ev, symObjAddr: 0x7110, symBinAddr: 0x100007E94, symSize: 0x28 }
  - { offsetInCU: 0x1A356, offset: 0x1A356, size: 0x8, addend: 0x0, symName: __ZNSt3__112__hash_tableINS_17__hash_value_typeIciEENS_22__unordered_map_hasherIcS2_NS_4hashIcEENS_8equal_toIcEELb1EEENS_21__unordered_map_equalIcS2_S7_S5_Lb1EEENS_9allocatorIS2_EEE15__rehash_uniqueB7v160006Em, symObjAddr: 0x7138, symBinAddr: 0x100007EBC, symSize: 0x2C }
  - { offsetInCU: 0x1A38A, offset: 0x1A38A, size: 0x8, addend: 0x0, symName: __Z4ceilB7v160006f, symObjAddr: 0x71E0, symBinAddr: 0x100007F64, symSize: 0x18 }
  - { offsetInCU: 0x1A3B9, offset: 0x1A3B9, size: 0x8, addend: 0x0, symName: __ZNSt3__117__compressed_pairImNS_22__unordered_map_hasherIcNS_17__hash_value_typeIciEENS_4hashIcEENS_8equal_toIcEELb1EEEE5firstB7v160006Ev, symObjAddr: 0x71F8, symBinAddr: 0x100007F7C, symSize: 0x24 }
  - { offsetInCU: 0x1A3DF, offset: 0x1A3DF, size: 0x8, addend: 0x0, symName: __ZNSt3__117__compressed_pairIfNS_21__unordered_map_equalIcNS_17__hash_value_typeIciEENS_8equal_toIcEENS_4hashIcEELb1EEEE5firstB7v160006Ev, symObjAddr: 0x721C, symBinAddr: 0x100007FA0, symSize: 0x24 }
  - { offsetInCU: 0x1A405, offset: 0x1A405, size: 0x8, addend: 0x0, symName: __ZNSt3__122__compressed_pair_elemIfLi0ELb0EE5__getB7v160006Ev, symObjAddr: 0x7240, symBinAddr: 0x100007FC4, symSize: 0x14 }
  - { offsetInCU: 0x1A42B, offset: 0x1A42B, size: 0x8, addend: 0x0, symName: __ZNSt3__112__hash_tableINS_17__hash_value_typeIciEENS_22__unordered_map_hasherIcS2_NS_4hashIcEENS_8equal_toIcEELb1EEENS_21__unordered_map_equalIcS2_S7_S5_Lb1EEENS_9allocatorIS2_EEE8__rehashILb1EEEvm, symObjAddr: 0x7254, symBinAddr: 0x100007FD8, symSize: 0x1A8 }
  - { offsetInCU: 0x1A47B, offset: 0x1A47B, size: 0x8, addend: 0x0, symName: __ZNSt3__112__hash_tableINS_17__hash_value_typeIciEENS_22__unordered_map_hasherIcS2_NS_4hashIcEENS_8equal_toIcEELb1EEENS_21__unordered_map_equalIcS2_S7_S5_Lb1EEENS_9allocatorIS2_EEE11__do_rehashILb1EEEvm, symObjAddr: 0x73FC, symBinAddr: 0x100008180, symSize: 0x290 }
  - { offsetInCU: 0x1A562, offset: 0x1A562, size: 0x8, addend: 0x0, symName: __ZNSt3__110unique_ptrIA_PNS_16__hash_node_baseIPNS_11__hash_nodeINS_17__hash_value_typeIciEEPvEEEENS_25__bucket_list_deallocatorINS_9allocatorIS9_EEEEE11get_deleterB7v160006Ev, symObjAddr: 0x7708, symBinAddr: 0x10000848C, symSize: 0x24 }
  - { offsetInCU: 0x1A588, offset: 0x1A588, size: 0x8, addend: 0x0, symName: __ZNSt3__110unique_ptrIA_PNS_16__hash_node_baseIPNS_11__hash_nodeINS_17__hash_value_typeIciEEPvEEEENS_25__bucket_list_deallocatorINS_9allocatorIS9_EEEEE5resetB7v160006IPS9_EENS_9enable_ifIXsr28_CheckArrayPointerConversionIT_EE5valueEvE4typeESJ_, symObjAddr: 0x772C, symBinAddr: 0x1000084B0, symSize: 0x78 }
  - { offsetInCU: 0x1A5D5, offset: 0x1A5D5, size: 0x8, addend: 0x0, symName: __ZNSt3__116allocator_traitsINS_9allocatorIPNS_16__hash_node_baseIPNS_11__hash_nodeINS_17__hash_value_typeIciEEPvEEEEEEE8allocateB7v160006ERSB_m, symObjAddr: 0x77A4, symBinAddr: 0x100008528, symSize: 0x2C }
  - { offsetInCU: 0x1A608, offset: 0x1A608, size: 0x8, addend: 0x0, symName: __ZNSt3__19allocatorIPNS_16__hash_node_baseIPNS_11__hash_nodeINS_17__hash_value_typeIciEEPvEEEEE8allocateB7v160006Em, symObjAddr: 0x77D0, symBinAddr: 0x100008554, symSize: 0x84 }
  - { offsetInCU: 0x1A646, offset: 0x1A646, size: 0x8, addend: 0x0, symName: __ZNSt3__116allocator_traitsINS_9allocatorIPNS_16__hash_node_baseIPNS_11__hash_nodeINS_17__hash_value_typeIciEEPvEEEEEEE8max_sizeB7v160006ISB_vEEmRKSB_, symObjAddr: 0x7854, symBinAddr: 0x1000085D8, symSize: 0x24 }
  - { offsetInCU: 0x1A674, offset: 0x1A674, size: 0x8, addend: 0x0, symName: __ZNKSt3__19allocatorIPNS_16__hash_node_baseIPNS_11__hash_nodeINS_17__hash_value_typeIciEEPvEEEEE8max_sizeB7v160006Ev, symObjAddr: 0x7878, symBinAddr: 0x1000085FC, symSize: 0x14 }
  - { offsetInCU: 0x1A6A4, offset: 0x1A6A4, size: 0x8, addend: 0x0, symName: __ZNKSt3__16__lessImmEclB7v160006ERKmS3_, symObjAddr: 0x78FC, symBinAddr: 0x100008680, symSize: 0x34 }
  - { offsetInCU: 0x1A6E6, offset: 0x1A6E6, size: 0x8, addend: 0x0, symName: __ZNSt3__14pairINS_15__hash_iteratorIPNS_11__hash_nodeINS_17__hash_value_typeIciEEPvEEEEbEC2B7v160006ERKS8_RKb, symObjAddr: 0x7930, symBinAddr: 0x1000086B4, symSize: 0x38 }
  - { offsetInCU: 0x1A72C, offset: 0x1A72C, size: 0x8, addend: 0x0, symName: __ZNSt3__14pairINS_19__hash_map_iteratorINS_15__hash_iteratorIPNS_11__hash_nodeINS_17__hash_value_typeIciEEPvEEEEEEbEC2B7v160006IS9_bEERKNS0_IT_T0_EE, symObjAddr: 0x7968, symBinAddr: 0x1000086EC, symSize: 0x50 }
  - { offsetInCU: 0x1A776, offset: 0x1A776, size: 0x8, addend: 0x0, symName: __ZNSt3__117__compressed_pairIPNS_11__hash_nodeINS_17__hash_value_typeIciEEPvEENS_26__hash_map_node_destructorINS_9allocatorIS5_EEEEE5firstB7v160006Ev, symObjAddr: 0x79B8, symBinAddr: 0x10000873C, symSize: 0x24 }
  - { offsetInCU: 0x1A79C, offset: 0x1A79C, size: 0x8, addend: 0x0, symName: __ZNSt3__122__compressed_pair_elemIPNS_11__hash_nodeINS_17__hash_value_typeIciEEPvEELi0ELb0EE5__getB7v160006Ev, symObjAddr: 0x79DC, symBinAddr: 0x100008760, symSize: 0x14 }
  - { offsetInCU: 0x1A7C2, offset: 0x1A7C2, size: 0x8, addend: 0x0, symName: __ZNSt3__110unique_ptrINS_11__hash_nodeINS_17__hash_value_typeIciEEPvEENS_26__hash_map_node_destructorINS_9allocatorIS5_EEEEED2B7v160006Ev, symObjAddr: 0x79F0, symBinAddr: 0x100008774, symSize: 0x30 }
  - { offsetInCU: 0x1A7EC, offset: 0x1A7EC, size: 0x8, addend: 0x0, symName: __ZNSt3__110unique_ptrINS_11__hash_nodeINS_17__hash_value_typeIciEEPvEENS_26__hash_map_node_destructorINS_9allocatorIS5_EEEEE5resetB7v160006EPS5_, symObjAddr: 0x7A20, symBinAddr: 0x1000087A4, symSize: 0x78 }
  - { offsetInCU: 0x1A830, offset: 0x1A830, size: 0x8, addend: 0x0, symName: __ZNSt3__126__hash_map_node_destructorINS_9allocatorINS_11__hash_nodeINS_17__hash_value_typeIciEEPvEEEEEclB7v160006EPS6_, symObjAddr: 0x7A98, symBinAddr: 0x10000881C, symSize: 0xE4 }
  - { offsetInCU: 0x1A865, offset: 0x1A865, size: 0x8, addend: 0x0, symName: __ZNSt3__116allocator_traitsINS_9allocatorINS_11__hash_nodeINS_17__hash_value_typeIciEEPvEEEEE7destroyB7v160006IivvEEvRS7_PT_, symObjAddr: 0x7B7C, symBinAddr: 0x100008900, symSize: 0x14 }
  - { offsetInCU: 0x1A89F, offset: 0x1A89F, size: 0x8, addend: 0x0, symName: __ZNSt3__116allocator_traitsINS_9allocatorINS_11__hash_nodeINS_17__hash_value_typeIciEEPvEEEEE7destroyB7v160006IKcvvEEvRS7_PT_, symObjAddr: 0x7B90, symBinAddr: 0x100008914, symSize: 0x14 }
  - { offsetInCU: 0x1A8D9, offset: 0x1A8D9, size: 0x8, addend: 0x0, symName: __ZNSt3__15stackIcNS_5dequeIcNS_9allocatorIcEEEEEC2B7v160006Ev, symObjAddr: 0x7BA4, symBinAddr: 0x100008928, symSize: 0x2C }
  - { offsetInCU: 0x1A903, offset: 0x1A903, size: 0x8, addend: 0x0, symName: __ZNSt3__15dequeIcNS_9allocatorIcEEEC1B7v160006Ev, symObjAddr: 0x7BD0, symBinAddr: 0x100008954, symSize: 0x2C }
  - { offsetInCU: 0x1A92D, offset: 0x1A92D, size: 0x8, addend: 0x0, symName: __ZNSt3__15dequeIcNS_9allocatorIcEEEC2B7v160006Ev, symObjAddr: 0x7BFC, symBinAddr: 0x100008980, symSize: 0x78 }
  - { offsetInCU: 0x1A957, offset: 0x1A957, size: 0x8, addend: 0x0, symName: __ZNSt3__114__split_bufferIPcNS_9allocatorIS1_EEEC1Ev, symObjAddr: 0x7C74, symBinAddr: 0x1000089F8, symSize: 0x2C }
  - { offsetInCU: 0x1A983, offset: 0x1A983, size: 0x8, addend: 0x0, symName: __ZNSt3__117__compressed_pairImNS_9allocatorIcEEEC1B7v160006IiNS_18__default_init_tagEEEOT_OT0_, symObjAddr: 0x7CA0, symBinAddr: 0x100008A24, symSize: 0x3C }
  - { offsetInCU: 0x1A9DB, offset: 0x1A9DB, size: 0x8, addend: 0x0, symName: __ZNSt3__114__split_bufferIPcNS_9allocatorIS1_EEEC2Ev, symObjAddr: 0x7CDC, symBinAddr: 0x100008A60, symSize: 0x48 }
  - { offsetInCU: 0x1AA0D, offset: 0x1AA0D, size: 0x8, addend: 0x0, symName: __ZNSt3__117__compressed_pairIPPcNS_9allocatorIS1_EEEC1B7v160006IDnNS_18__default_init_tagEEEOT_OT0_, symObjAddr: 0x7D24, symBinAddr: 0x100008AA8, symSize: 0x3C }
  - { offsetInCU: 0x1AA65, offset: 0x1AA65, size: 0x8, addend: 0x0, symName: __ZNSt3__117__compressed_pairIPPcNS_9allocatorIS1_EEEC2B7v160006IDnNS_18__default_init_tagEEEOT_OT0_, symObjAddr: 0x7D60, symBinAddr: 0x100008AE4, symSize: 0x40 }
  - { offsetInCU: 0x1AABD, offset: 0x1AABD, size: 0x8, addend: 0x0, symName: __ZNSt3__122__compressed_pair_elemIPPcLi0ELb0EEC2B7v160006IDnvEEOT_, symObjAddr: 0x7DA0, symBinAddr: 0x100008B24, symSize: 0x1C }
  - { offsetInCU: 0x1AAFF, offset: 0x1AAFF, size: 0x8, addend: 0x0, symName: __ZNSt3__122__compressed_pair_elemINS_9allocatorIPcEELi1ELb1EEC2B7v160006ENS_18__default_init_tagE, symObjAddr: 0x7DBC, symBinAddr: 0x100008B40, symSize: 0x2C }
  - { offsetInCU: 0x1AB33, offset: 0x1AB33, size: 0x8, addend: 0x0, symName: __ZNSt3__19allocatorIPcEC2B7v160006Ev, symObjAddr: 0x7DE8, symBinAddr: 0x100008B6C, symSize: 0x2C }
  - { offsetInCU: 0x1AB5D, offset: 0x1AB5D, size: 0x8, addend: 0x0, symName: __ZNSt3__116__non_trivial_ifILb1ENS_9allocatorIPcEEEC2B7v160006Ev, symObjAddr: 0x7E14, symBinAddr: 0x100008B98, symSize: 0x14 }
  - { offsetInCU: 0x1AB87, offset: 0x1AB87, size: 0x8, addend: 0x0, symName: __ZNSt3__117__compressed_pairImNS_9allocatorIcEEEC2B7v160006IiNS_18__default_init_tagEEEOT_OT0_, symObjAddr: 0x7E28, symBinAddr: 0x100008BAC, symSize: 0x40 }
  - { offsetInCU: 0x1ABDF, offset: 0x1ABDF, size: 0x8, addend: 0x0, symName: __ZNSt3__112basic_stringIcNS_11char_traitsIcEENS_9allocatorIcEEE13__get_pointerB7v160006Ev, symObjAddr: 0x7E68, symBinAddr: 0x100008BEC, symSize: 0x54 }
  - { offsetInCU: 0x1AC05, offset: 0x1AC05, size: 0x8, addend: 0x0, symName: __ZNKSt3__112basic_stringIcNS_11char_traitsIcEENS_9allocatorIcEEE9__is_longB7v160006Ev, symObjAddr: 0x7EBC, symBinAddr: 0x100008C40, symSize: 0x74 }
  - { offsetInCU: 0x1AC2B, offset: 0x1AC2B, size: 0x8, addend: 0x0, symName: __ZNSt3__112basic_stringIcNS_11char_traitsIcEENS_9allocatorIcEEE18__get_long_pointerB7v160006Ev, symObjAddr: 0x7F30, symBinAddr: 0x100008CB4, symSize: 0x28 }
  - { offsetInCU: 0x1AC51, offset: 0x1AC51, size: 0x8, addend: 0x0, symName: __ZNSt3__112basic_stringIcNS_11char_traitsIcEENS_9allocatorIcEEE19__get_short_pointerB7v160006Ev, symObjAddr: 0x7F58, symBinAddr: 0x100008CDC, symSize: 0x28 }
  - { offsetInCU: 0x1AC77, offset: 0x1AC77, size: 0x8, addend: 0x0, symName: __ZNKSt3__117__compressed_pairINS_12basic_stringIcNS_11char_traitsIcEENS_9allocatorIcEEE5__repES5_E5firstB7v160006Ev, symObjAddr: 0x7F80, symBinAddr: 0x100008D04, symSize: 0x24 }
  - { offsetInCU: 0x1AC9D, offset: 0x1AC9D, size: 0x8, addend: 0x0, symName: __ZNKSt3__122__compressed_pair_elemINS_12basic_stringIcNS_11char_traitsIcEENS_9allocatorIcEEE5__repELi0ELb0EE5__getB7v160006Ev, symObjAddr: 0x7FA4, symBinAddr: 0x100008D28, symSize: 0x14 }
  - { offsetInCU: 0x1ACC3, offset: 0x1ACC3, size: 0x8, addend: 0x0, symName: __ZNSt3__114pointer_traitsIPcE10pointer_toB7v160006ERc, symObjAddr: 0x7FB8, symBinAddr: 0x100008D3C, symSize: 0x14 }
  - { offsetInCU: 0x1ACE6, offset: 0x1ACE6, size: 0x8, addend: 0x0, symName: __ZNSt3__15dequeIcNS_9allocatorIcEEE9push_backERKc, symObjAddr: 0x7FCC, symBinAddr: 0x100008D50, symSize: 0xA0 }
  - { offsetInCU: 0x1AD2C, offset: 0x1AD2C, size: 0x8, addend: 0x0, symName: __ZNKSt3__15dequeIcNS_9allocatorIcEEE12__back_spareB7v160006Ev, symObjAddr: 0x806C, symBinAddr: 0x100008DF0, symSize: 0x54 }
  - { offsetInCU: 0x1AD52, offset: 0x1AD52, size: 0x8, addend: 0x0, symName: __ZNSt3__15dequeIcNS_9allocatorIcEEE19__add_back_capacityEv, symObjAddr: 0x80C0, symBinAddr: 0x100008E44, symSize: 0x32C }
  - { offsetInCU: 0x1AE0A, offset: 0x1AE0A, size: 0x8, addend: 0x0, symName: __ZNSt3__116allocator_traitsINS_9allocatorIcEEE9constructB7v160006IcJRKcEvEEvRS2_PT_DpOT0_, symObjAddr: 0x83EC, symBinAddr: 0x100009170, symSize: 0x34 }
  - { offsetInCU: 0x1AE61, offset: 0x1AE61, size: 0x8, addend: 0x0, symName: __ZNKSt3__15dequeIcNS_9allocatorIcEEE10__capacityB7v160006Ev, symObjAddr: 0x8420, symBinAddr: 0x1000091A4, symSize: 0x60 }
  - { offsetInCU: 0x1AE87, offset: 0x1AE87, size: 0x8, addend: 0x0, symName: __ZNKSt3__15dequeIcNS_9allocatorIcEEE13__front_spareB7v160006Ev, symObjAddr: 0x8480, symBinAddr: 0x100009204, symSize: 0x18 }
  - { offsetInCU: 0x1AEAD, offset: 0x1AEAD, size: 0x8, addend: 0x0, symName: __ZNSt3__114__split_bufferIPcNS_9allocatorIS1_EEE9push_backB7v160006ERKS1_, symObjAddr: 0x8498, symBinAddr: 0x10000921C, symSize: 0x270 }
  - { offsetInCU: 0x1AF26, offset: 0x1AF26, size: 0x8, addend: 0x0, symName: __ZNKSt3__114__split_bufferIPcNS_9allocatorIS1_EEE12__back_spareB7v160006Ev, symObjAddr: 0x8708, symBinAddr: 0x10000948C, symSize: 0x40 }
  - { offsetInCU: 0x1AF4C, offset: 0x1AF4C, size: 0x8, addend: 0x0, symName: __ZNSt3__114__split_bufferIPcNS_9allocatorIS1_EEE9push_backEOS1_, symObjAddr: 0x8748, symBinAddr: 0x1000094CC, symSize: 0x270 }
  - { offsetInCU: 0x1AFC5, offset: 0x1AFC5, size: 0x8, addend: 0x0, symName: __ZNSt3__114__split_bufferIPcNS_9allocatorIS1_EEE10push_frontEOS1_, symObjAddr: 0x89B8, symBinAddr: 0x10000973C, symSize: 0x26C }
  - { offsetInCU: 0x1B03E, offset: 0x1B03E, size: 0x8, addend: 0x0, symName: __ZNSt3__114__split_bufferIPcRNS_9allocatorIS1_EEEC1EmmS4_, symObjAddr: 0x8C24, symBinAddr: 0x1000099A8, symSize: 0x44 }
  - { offsetInCU: 0x1B099, offset: 0x1B099, size: 0x8, addend: 0x0, symName: __ZNSt3__122__allocator_destructorINS_9allocatorIcEEEC1B7v160006ERS2_m, symObjAddr: 0x8C68, symBinAddr: 0x1000099EC, symSize: 0x3C }
  - { offsetInCU: 0x1B163, offset: 0x1B163, size: 0x8, addend: 0x0, symName: __ZNSt3__110unique_ptrIPcNS_22__allocator_destructorINS_9allocatorIcEEEEEC1B7v160006ILb1EvEES1_NS_16__dependent_typeINS_27__unique_ptr_deleter_sfinaeIS5_EEXT_EE20__good_rval_ref_typeE, symObjAddr: 0x8CA4, symBinAddr: 0x100009A28, symSize: 0x3C }
  - { offsetInCU: 0x1B1B4, offset: 0x1B1B4, size: 0x8, addend: 0x0, symName: __ZNSt3__114__split_bufferIPcRNS_9allocatorIS1_EEE9push_backEOS1_, symObjAddr: 0x8CE0, symBinAddr: 0x100009A64, symSize: 0x270 }
  - { offsetInCU: 0x1B22D, offset: 0x1B22D, size: 0x8, addend: 0x0, symName: __ZNKSt3__110unique_ptrIPcNS_22__allocator_destructorINS_9allocatorIcEEEEE3getB7v160006Ev, symObjAddr: 0x8F50, symBinAddr: 0x100009CD4, symSize: 0x28 }
  - { offsetInCU: 0x1B253, offset: 0x1B253, size: 0x8, addend: 0x0, symName: __ZNSt3__110unique_ptrIPcNS_22__allocator_destructorINS_9allocatorIcEEEEE7releaseB7v160006Ev, symObjAddr: 0x8F78, symBinAddr: 0x100009CFC, symSize: 0x44 }
  - { offsetInCU: 0x1B288, offset: 0x1B288, size: 0x8, addend: 0x0, symName: __ZNSt3__114__split_bufferIPcRNS_9allocatorIS1_EEE10push_frontERKS1_, symObjAddr: 0x8FBC, symBinAddr: 0x100009D40, symSize: 0x26C }
  - { offsetInCU: 0x1B301, offset: 0x1B301, size: 0x8, addend: 0x0, symName: __ZNSt3__114__split_bufferIPcNS_9allocatorIS1_EEE9__end_capB7v160006Ev, symObjAddr: 0x9264, symBinAddr: 0x100009FE8, symSize: 0x28 }
  - { offsetInCU: 0x1B327, offset: 0x1B327, size: 0x8, addend: 0x0, symName: __ZNSt3__114__split_bufferIPcRNS_9allocatorIS1_EEE9__end_capB7v160006Ev, symObjAddr: 0x928C, symBinAddr: 0x10000A010, symSize: 0x28 }
  - { offsetInCU: 0x1B34D, offset: 0x1B34D, size: 0x8, addend: 0x0, symName: __ZNSt3__110unique_ptrIPcNS_22__allocator_destructorINS_9allocatorIcEEEEED1B7v160006Ev, symObjAddr: 0x92B4, symBinAddr: 0x10000A038, symSize: 0x2C }
  - { offsetInCU: 0x1B377, offset: 0x1B377, size: 0x8, addend: 0x0, symName: __ZNSt3__114__split_bufferIPcRNS_9allocatorIS1_EEED1Ev, symObjAddr: 0x92E0, symBinAddr: 0x10000A064, symSize: 0x2C }
  - { offsetInCU: 0x1B3A3, offset: 0x1B3A3, size: 0x8, addend: 0x0, symName: __ZNSt3__114__split_bufferIPcRNS_9allocatorIS1_EEE18__construct_at_endINS_13move_iteratorIPS1_EEEENS_9enable_ifIXsr27__is_cpp17_forward_iteratorIT_EE5valueEvE4typeESB_SB_, symObjAddr: 0x934C, symBinAddr: 0x10000A0D0, symSize: 0x104 }
  - { offsetInCU: 0x1B3FF, offset: 0x1B3FF, size: 0x8, addend: 0x0, symName: __ZNSt3__113move_iteratorIPPcEC1B7v160006ES2_, symObjAddr: 0x9450, symBinAddr: 0x10000A1D4, symSize: 0x34 }
  - { offsetInCU: 0x1B437, offset: 0x1B437, size: 0x8, addend: 0x0, symName: __ZNSt3__116allocator_traitsINS_9allocatorIPcEEE9constructB7v160006IS2_JRKS2_EvEEvRS3_PT_DpOT0_, symObjAddr: 0x9484, symBinAddr: 0x10000A208, symSize: 0x34 }
  - { offsetInCU: 0x1B4B2, offset: 0x1B4B2, size: 0x8, addend: 0x0, symName: __ZNKSt3__114__move_trivialclB7v160006IPcS2_Li0EEENS_4pairIPT_PT0_EES5_S5_S7_, symObjAddr: 0x9664, symBinAddr: 0x10000A3E8, symSize: 0x48 }
  - { offsetInCU: 0x1B51A, offset: 0x1B51A, size: 0x8, addend: 0x0, symName: __ZNSt3__14pairIPPcS2_EC1B7v160006ERKS2_S5_, symObjAddr: 0x9840, symBinAddr: 0x10000A5C4, symSize: 0x3C }
  - { offsetInCU: 0x1B560, offset: 0x1B560, size: 0x8, addend: 0x0, symName: __ZNSt3__14pairIPPcS2_EC2B7v160006ERKS2_S5_, symObjAddr: 0x987C, symBinAddr: 0x10000A600, symSize: 0x34 }
  - { offsetInCU: 0x1B5A6, offset: 0x1B5A6, size: 0x8, addend: 0x0, symName: __ZNSt3__118__unwrap_iter_implIPPcLb1EE8__unwrapB7v160006ES2_, symObjAddr: 0x98B0, symBinAddr: 0x10000A634, symSize: 0x24 }
  - { offsetInCU: 0x1B5C9, offset: 0x1B5C9, size: 0x8, addend: 0x0, symName: __ZNSt3__118__unwrap_iter_implIPPcLb1EE8__rewrapB7v160006ES2_S2_, symObjAddr: 0x98D4, symBinAddr: 0x10000A658, symSize: 0x50 }
  - { offsetInCU: 0x1B604, offset: 0x1B604, size: 0x8, addend: 0x0, symName: __ZNSt3__114__split_bufferIPcRNS_9allocatorIS1_EEE21_ConstructTransactionC1B7v160006EPPS1_m, symObjAddr: 0x9960, symBinAddr: 0x10000A6E4, symSize: 0x3C }
  - { offsetInCU: 0x1B64A, offset: 0x1B64A, size: 0x8, addend: 0x0, symName: __ZNSt3__116allocator_traitsINS_9allocatorIPcEEE9constructB7v160006IS2_JS2_EvEEvRS3_PT_DpOT0_, symObjAddr: 0x999C, symBinAddr: 0x10000A720, symSize: 0x34 }
  - { offsetInCU: 0x1B6A1, offset: 0x1B6A1, size: 0x8, addend: 0x0, symName: __ZNSt3__114__split_bufferIPcRNS_9allocatorIS1_EEE7__allocB7v160006Ev, symObjAddr: 0x99D0, symBinAddr: 0x10000A754, symSize: 0x28 }
  - { offsetInCU: 0x1B6C7, offset: 0x1B6C7, size: 0x8, addend: 0x0, symName: __ZNKSt3__113move_iteratorIPPcEdeB7v160006Ev, symObjAddr: 0x99F8, symBinAddr: 0x10000A77C, symSize: 0x18 }
  - { offsetInCU: 0x1B6ED, offset: 0x1B6ED, size: 0x8, addend: 0x0, symName: __ZNSt3__113move_iteratorIPPcEppB7v160006Ev, symObjAddr: 0x9A10, symBinAddr: 0x10000A794, symSize: 0x20 }
  - { offsetInCU: 0x1B713, offset: 0x1B713, size: 0x8, addend: 0x0, symName: __ZNSt3__114__split_bufferIPcRNS_9allocatorIS1_EEE21_ConstructTransactionD1B7v160006Ev, symObjAddr: 0x9A30, symBinAddr: 0x10000A7B4, symSize: 0x2C }
  - { offsetInCU: 0x1B73D, offset: 0x1B73D, size: 0x8, addend: 0x0, symName: __ZNKSt3__113move_iteratorIPPcE4baseB7v160006Ev, symObjAddr: 0x9AD4, symBinAddr: 0x10000A858, symSize: 0x18 }
  - { offsetInCU: 0x1B763, offset: 0x1B763, size: 0x8, addend: 0x0, symName: __ZNSt3__114__split_bufferIPcRNS_9allocatorIS1_EEE21_ConstructTransactionC2B7v160006EPPS1_m, symObjAddr: 0x9AEC, symBinAddr: 0x10000A870, symSize: 0x44 }
  - { offsetInCU: 0x1B7A9, offset: 0x1B7A9, size: 0x8, addend: 0x0, symName: __ZNSt3__19allocatorIPcE9constructB7v160006IS1_JS1_EEEvPT_DpOT0_, symObjAddr: 0x9B30, symBinAddr: 0x10000A8B4, symSize: 0x28 }
  - { offsetInCU: 0x1B7FF, offset: 0x1B7FF, size: 0x8, addend: 0x0, symName: __ZNSt3__117__compressed_pairIPPcRNS_9allocatorIS1_EEE6secondB7v160006Ev, symObjAddr: 0x9B58, symBinAddr: 0x10000A8DC, symSize: 0x28 }
  - { offsetInCU: 0x1B825, offset: 0x1B825, size: 0x8, addend: 0x0, symName: __ZNSt3__122__compressed_pair_elemIRNS_9allocatorIPcEELi1ELb0EE5__getB7v160006Ev, symObjAddr: 0x9B80, symBinAddr: 0x10000A904, symSize: 0x18 }
  - { offsetInCU: 0x1B84B, offset: 0x1B84B, size: 0x8, addend: 0x0, symName: __ZNSt3__114__split_bufferIPcRNS_9allocatorIS1_EEE21_ConstructTransactionD2B7v160006Ev, symObjAddr: 0x9B98, symBinAddr: 0x10000A91C, symSize: 0x20 }
  - { offsetInCU: 0x1B875, offset: 0x1B875, size: 0x8, addend: 0x0, symName: __ZNSt3__113move_iteratorIPPcEC2B7v160006ES2_, symObjAddr: 0x9BB8, symBinAddr: 0x10000A93C, symSize: 0x20 }
  - { offsetInCU: 0x1B8AD, offset: 0x1B8AD, size: 0x8, addend: 0x0, symName: __ZNSt3__19allocatorIPcE9constructB7v160006IS1_JRKS1_EEEvPT_DpOT0_, symObjAddr: 0x9BD8, symBinAddr: 0x10000A95C, symSize: 0x28 }
  - { offsetInCU: 0x1B90D, offset: 0x1B90D, size: 0x8, addend: 0x0, symName: __ZNKSt3__123__move_backward_trivialclB7v160006IPcS2_Li0EEENS_4pairIPT_PT0_EES5_S5_S7_, symObjAddr: 0x9D8C, symBinAddr: 0x10000AB10, symSize: 0x48 }
  - { offsetInCU: 0x1B975, offset: 0x1B975, size: 0x8, addend: 0x0, symName: __ZNSt3__114__split_bufferIPcRNS_9allocatorIS1_EEEC2EmmS4_, symObjAddr: 0x9EA0, symBinAddr: 0x10000AC24, symSize: 0xD4 }
  - { offsetInCU: 0x1B9E9, offset: 0x1B9E9, size: 0x8, addend: 0x0, symName: __ZNSt3__117__compressed_pairIPPcRNS_9allocatorIS1_EEEC1B7v160006IDnS5_EEOT_OT0_, symObjAddr: 0x9F74, symBinAddr: 0x10000ACF8, symSize: 0x3C }
  - { offsetInCU: 0x1BA41, offset: 0x1BA41, size: 0x8, addend: 0x0, symName: __ZNSt3__117__compressed_pairIPPcRNS_9allocatorIS1_EEEC2B7v160006IDnS5_EEOT_OT0_, symObjAddr: 0x9FF0, symBinAddr: 0x10000AD74, symSize: 0x48 }
  - { offsetInCU: 0x1BA99, offset: 0x1BA99, size: 0x8, addend: 0x0, symName: __ZNSt3__122__compressed_pair_elemIRNS_9allocatorIPcEELi1ELb0EEC2B7v160006IS4_vEEOT_, symObjAddr: 0xA038, symBinAddr: 0x10000ADBC, symSize: 0x20 }
  - { offsetInCU: 0x1BADB, offset: 0x1BADB, size: 0x8, addend: 0x0, symName: __ZNSt3__19allocatorIPcE8allocateB7v160006Em, symObjAddr: 0xA058, symBinAddr: 0x10000ADDC, symSize: 0x84 }
  - { offsetInCU: 0x1BB19, offset: 0x1BB19, size: 0x8, addend: 0x0, symName: __ZNSt3__116allocator_traitsINS_9allocatorIPcEEE8max_sizeB7v160006IS3_vEEmRKS3_, symObjAddr: 0xA0DC, symBinAddr: 0x10000AE60, symSize: 0x24 }
  - { offsetInCU: 0x1BB47, offset: 0x1BB47, size: 0x8, addend: 0x0, symName: __ZNKSt3__19allocatorIPcE8max_sizeB7v160006Ev, symObjAddr: 0xA100, symBinAddr: 0x10000AE84, symSize: 0x14 }
  - { offsetInCU: 0x1BB6D, offset: 0x1BB6D, size: 0x8, addend: 0x0, symName: __ZNSt3__122__allocator_destructorINS_9allocatorIcEEEC2B7v160006ERS2_m, symObjAddr: 0xA114, symBinAddr: 0x10000AE98, symSize: 0x2C }
  - { offsetInCU: 0x1BBB3, offset: 0x1BBB3, size: 0x8, addend: 0x0, symName: __ZNSt3__110unique_ptrIPcNS_22__allocator_destructorINS_9allocatorIcEEEEEC2B7v160006ILb1EvEES1_NS_16__dependent_typeINS_27__unique_ptr_deleter_sfinaeIS5_EEXT_EE20__good_rval_ref_typeE, symObjAddr: 0xA140, symBinAddr: 0x10000AEC4, symSize: 0x5C }
  - { offsetInCU: 0x1BC04, offset: 0x1BC04, size: 0x8, addend: 0x0, symName: __ZNSt3__117__compressed_pairIPcNS_22__allocator_destructorINS_9allocatorIcEEEEEC1B7v160006IRS1_S5_EEOT_OT0_, symObjAddr: 0xA19C, symBinAddr: 0x10000AF20, symSize: 0x3C }
  - { offsetInCU: 0x1BC5C, offset: 0x1BC5C, size: 0x8, addend: 0x0, symName: __ZNSt3__117__compressed_pairIPcNS_22__allocator_destructorINS_9allocatorIcEEEEEC2B7v160006IRS1_S5_EEOT_OT0_, symObjAddr: 0xA1D8, symBinAddr: 0x10000AF5C, symSize: 0x48 }
  - { offsetInCU: 0x1BCB4, offset: 0x1BCB4, size: 0x8, addend: 0x0, symName: __ZNSt3__122__compressed_pair_elemIPcLi0ELb0EEC2B7v160006IRS1_vEEOT_, symObjAddr: 0xA220, symBinAddr: 0x10000AFA4, symSize: 0x24 }
  - { offsetInCU: 0x1BCF6, offset: 0x1BCF6, size: 0x8, addend: 0x0, symName: __ZNSt3__122__compressed_pair_elemINS_22__allocator_destructorINS_9allocatorIcEEEELi1ELb0EEC2B7v160006IS4_vEEOT_, symObjAddr: 0xA244, symBinAddr: 0x10000AFC8, symSize: 0x24 }
  - { offsetInCU: 0x1BD38, offset: 0x1BD38, size: 0x8, addend: 0x0, symName: __ZNKSt3__117__compressed_pairIPcNS_22__allocator_destructorINS_9allocatorIcEEEEE5firstB7v160006Ev, symObjAddr: 0xA268, symBinAddr: 0x10000AFEC, symSize: 0x24 }
  - { offsetInCU: 0x1BD5E, offset: 0x1BD5E, size: 0x8, addend: 0x0, symName: __ZNKSt3__122__compressed_pair_elemIPcLi0ELb0EE5__getB7v160006Ev, symObjAddr: 0xA28C, symBinAddr: 0x10000B010, symSize: 0x14 }
  - { offsetInCU: 0x1BD84, offset: 0x1BD84, size: 0x8, addend: 0x0, symName: __ZNSt3__117__compressed_pairIPcNS_22__allocator_destructorINS_9allocatorIcEEEEE5firstB7v160006Ev, symObjAddr: 0xA2A0, symBinAddr: 0x10000B024, symSize: 0x24 }
  - { offsetInCU: 0x1BDAA, offset: 0x1BDAA, size: 0x8, addend: 0x0, symName: __ZNSt3__122__compressed_pair_elemIPcLi0ELb0EE5__getB7v160006Ev, symObjAddr: 0xA2C4, symBinAddr: 0x10000B048, symSize: 0x14 }
  - { offsetInCU: 0x1BDD0, offset: 0x1BDD0, size: 0x8, addend: 0x0, symName: __ZNSt3__117__compressed_pairIPPcNS_9allocatorIS1_EEE5firstB7v160006Ev, symObjAddr: 0xA2D8, symBinAddr: 0x10000B05C, symSize: 0x24 }
  - { offsetInCU: 0x1BDF6, offset: 0x1BDF6, size: 0x8, addend: 0x0, symName: __ZNSt3__122__compressed_pair_elemIPPcLi0ELb0EE5__getB7v160006Ev, symObjAddr: 0xA2FC, symBinAddr: 0x10000B080, symSize: 0x14 }
  - { offsetInCU: 0x1BE1C, offset: 0x1BE1C, size: 0x8, addend: 0x0, symName: __ZNSt3__117__compressed_pairIPPcRNS_9allocatorIS1_EEE5firstB7v160006Ev, symObjAddr: 0xA310, symBinAddr: 0x10000B094, symSize: 0x24 }
  - { offsetInCU: 0x1BE42, offset: 0x1BE42, size: 0x8, addend: 0x0, symName: __ZNSt3__110unique_ptrIPcNS_22__allocator_destructorINS_9allocatorIcEEEEED2B7v160006Ev, symObjAddr: 0xA334, symBinAddr: 0x10000B0B8, symSize: 0x30 }
  - { offsetInCU: 0x1BE6C, offset: 0x1BE6C, size: 0x8, addend: 0x0, symName: __ZNSt3__110unique_ptrIPcNS_22__allocator_destructorINS_9allocatorIcEEEEE5resetB7v160006ES1_, symObjAddr: 0xA364, symBinAddr: 0x10000B0E8, symSize: 0x78 }
  - { offsetInCU: 0x1BEB0, offset: 0x1BEB0, size: 0x8, addend: 0x0, symName: __ZNSt3__117__compressed_pairIPcNS_22__allocator_destructorINS_9allocatorIcEEEEE6secondB7v160006Ev, symObjAddr: 0xA3DC, symBinAddr: 0x10000B160, symSize: 0x28 }
  - { offsetInCU: 0x1BED6, offset: 0x1BED6, size: 0x8, addend: 0x0, symName: __ZNSt3__122__allocator_destructorINS_9allocatorIcEEEclB7v160006EPc, symObjAddr: 0xA404, symBinAddr: 0x10000B188, symSize: 0x34 }
  - { offsetInCU: 0x1BF0A, offset: 0x1BF0A, size: 0x8, addend: 0x0, symName: __ZNSt3__122__compressed_pair_elemINS_22__allocator_destructorINS_9allocatorIcEEEELi1ELb0EE5__getB7v160006Ev, symObjAddr: 0xA438, symBinAddr: 0x10000B1BC, symSize: 0x14 }
  - { offsetInCU: 0x1BF30, offset: 0x1BF30, size: 0x8, addend: 0x0, symName: __ZNSt3__114__split_bufferIPcRNS_9allocatorIS1_EEED2Ev, symObjAddr: 0xA44C, symBinAddr: 0x10000B1D0, symSize: 0x80 }
  - { offsetInCU: 0x1BF5C, offset: 0x1BF5C, size: 0x8, addend: 0x0, symName: __ZNSt3__114__split_bufferIPcRNS_9allocatorIS1_EEE5clearB7v160006Ev, symObjAddr: 0xA4CC, symBinAddr: 0x10000B250, symSize: 0x28 }
  - { offsetInCU: 0x1BF82, offset: 0x1BF82, size: 0x8, addend: 0x0, symName: __ZNKSt3__114__split_bufferIPcRNS_9allocatorIS1_EEE8capacityB7v160006Ev, symObjAddr: 0xA4F4, symBinAddr: 0x10000B278, symSize: 0x40 }
  - { offsetInCU: 0x1BFA8, offset: 0x1BFA8, size: 0x8, addend: 0x0, symName: __ZNSt3__114__split_bufferIPcRNS_9allocatorIS1_EEE17__destruct_at_endB7v160006EPS1_, symObjAddr: 0xA534, symBinAddr: 0x10000B2B8, symSize: 0x2C }
  - { offsetInCU: 0x1BFDC, offset: 0x1BFDC, size: 0x8, addend: 0x0, symName: __ZNSt3__114__split_bufferIPcRNS_9allocatorIS1_EEE17__destruct_at_endB7v160006EPS1_NS_17integral_constantIbLb0EEE, symObjAddr: 0xA560, symBinAddr: 0x10000B2E4, symSize: 0x94 }
  - { offsetInCU: 0x1C01C, offset: 0x1C01C, size: 0x8, addend: 0x0, symName: __ZNKSt3__114__split_bufferIPcRNS_9allocatorIS1_EEE9__end_capB7v160006Ev, symObjAddr: 0xA5F4, symBinAddr: 0x10000B378, symSize: 0x28 }
  - { offsetInCU: 0x1C042, offset: 0x1C042, size: 0x8, addend: 0x0, symName: __ZNKSt3__117__compressed_pairIPPcRNS_9allocatorIS1_EEE5firstB7v160006Ev, symObjAddr: 0xA61C, symBinAddr: 0x10000B3A0, symSize: 0x24 }
  - { offsetInCU: 0x1C068, offset: 0x1C068, size: 0x8, addend: 0x0, symName: __ZNSt3__19allocatorIcE9constructB7v160006IcJRKcEEEvPT_DpOT0_, symObjAddr: 0xA640, symBinAddr: 0x10000B3C4, symSize: 0x28 }
  - { offsetInCU: 0x1C0BE, offset: 0x1C0BE, size: 0x8, addend: 0x0, symName: __ZNSt3__15dequeIcNS_9allocatorIcEEE8pop_backEv, symObjAddr: 0xA668, symBinAddr: 0x10000B3EC, symSize: 0xB8 }
  - { offsetInCU: 0x1C104, offset: 0x1C104, size: 0x8, addend: 0x0, symName: __ZNSt3__15dequeIcNS_9allocatorIcEEE25__maybe_remove_back_spareB7v160006Eb, symObjAddr: 0xA734, symBinAddr: 0x10000B4B8, symSize: 0xCC }
  - { offsetInCU: 0x1C139, offset: 0x1C139, size: 0x8, addend: 0x0, symName: __ZNKSt3__15dequeIcNS_9allocatorIcEEE19__back_spare_blocksB7v160006Ev, symObjAddr: 0xA800, symBinAddr: 0x10000B584, symSize: 0x2C }
  - { offsetInCU: 0x1C15F, offset: 0x1C15F, size: 0x8, addend: 0x0, symName: __ZNSt3__114__split_bufferIPcNS_9allocatorIS1_EEE4backB7v160006Ev, symObjAddr: 0xA82C, symBinAddr: 0x10000B5B0, symSize: 0x1C }
  - { offsetInCU: 0x1C185, offset: 0x1C185, size: 0x8, addend: 0x0, symName: __ZNSt3__114__split_bufferIPcNS_9allocatorIS1_EEE8pop_backB7v160006Ev, symObjAddr: 0xA848, symBinAddr: 0x10000B5CC, symSize: 0x2C }
  - { offsetInCU: 0x1C1AB, offset: 0x1C1AB, size: 0x8, addend: 0x0, symName: __ZNKSt3__15dequeIcNS_9allocatorIcEEE5emptyB7v160006Ev, symObjAddr: 0xA874, symBinAddr: 0x10000B5F8, symSize: 0x30 }
  - { offsetInCU: 0x1C1D1, offset: 0x1C1D1, size: 0x8, addend: 0x0, symName: __ZNSt3__19allocatorIcEC1B7v160006Ev, symObjAddr: 0xA8A4, symBinAddr: 0x10000B628, symSize: 0x2C }
  - { offsetInCU: 0x1C1FB, offset: 0x1C1FB, size: 0x8, addend: 0x0, symName: __ZNKSt3__112basic_stringIcNS_11char_traitsIcEENS_9allocatorIcEEE4sizeB7v160006Ev, symObjAddr: 0xA8D0, symBinAddr: 0x10000B654, symSize: 0x54 }
  - { offsetInCU: 0x1C221, offset: 0x1C221, size: 0x8, addend: 0x0, symName: __ZNKSt3__112basic_stringIcNS_11char_traitsIcEENS_9allocatorIcEEE15__get_long_sizeB7v160006Ev, symObjAddr: 0xA924, symBinAddr: 0x10000B6A8, symSize: 0x28 }
  - { offsetInCU: 0x1C247, offset: 0x1C247, size: 0x8, addend: 0x0, symName: __ZNKSt3__112basic_stringIcNS_11char_traitsIcEENS_9allocatorIcEEE16__get_short_sizeB7v160006Ev, symObjAddr: 0xA94C, symBinAddr: 0x10000B6D0, symSize: 0x34 }
  - { offsetInCU: 0x1C26D, offset: 0x1C26D, size: 0x8, addend: 0x0, symName: __ZNSt3__111char_traitsIcE6lengthEPKc, symObjAddr: 0xAB74, symBinAddr: 0x10000B8F8, symSize: 0x48 }
  - { offsetInCU: 0x1C2AE, offset: 0x1C2AE, size: 0x8, addend: 0x0, symName: __ZNKSt3__113basic_ostreamIcNS_11char_traitsIcEEE6sentrycvbB7v160006Ev, symObjAddr: 0xABBC, symBinAddr: 0x10000B940, symSize: 0x1C }
  - { offsetInCU: 0x1C2D4, offset: 0x1C2D4, size: 0x8, addend: 0x0, symName: __ZNSt3__119ostreambuf_iteratorIcNS_11char_traitsIcEEEC1B7v160006ERNS_13basic_ostreamIcS2_EE, symObjAddr: 0xAE20, symBinAddr: 0x10000BBA4, symSize: 0x34 }
  - { offsetInCU: 0x1C30C, offset: 0x1C30C, size: 0x8, addend: 0x0, symName: __ZNKSt3__18ios_base5flagsB7v160006Ev, symObjAddr: 0xAE54, symBinAddr: 0x10000BBD8, symSize: 0x18 }
  - { offsetInCU: 0x1C334, offset: 0x1C334, size: 0x8, addend: 0x0, symName: __ZNKSt3__19basic_iosIcNS_11char_traitsIcEEE4fillB7v160006Ev, symObjAddr: 0xAE6C, symBinAddr: 0x10000BBF0, symSize: 0x64 }
  - { offsetInCU: 0x1C35C, offset: 0x1C35C, size: 0x8, addend: 0x0, symName: __ZNKSt3__119ostreambuf_iteratorIcNS_11char_traitsIcEEE6failedB7v160006Ev, symObjAddr: 0xAED0, symBinAddr: 0x10000BC54, symSize: 0x24 }
  - { offsetInCU: 0x1C382, offset: 0x1C382, size: 0x8, addend: 0x0, symName: __ZNSt3__19basic_iosIcNS_11char_traitsIcEEE8setstateB7v160006Ej, symObjAddr: 0xAEF4, symBinAddr: 0x10000BC78, symSize: 0x2C }
  - { offsetInCU: 0x1C3B7, offset: 0x1C3B7, size: 0x8, addend: 0x0, symName: __ZNKSt3__18ios_base5widthB7v160006Ev, symObjAddr: 0xAF20, symBinAddr: 0x10000BCA4, symSize: 0x18 }
  - { offsetInCU: 0x1C3DF, offset: 0x1C3DF, size: 0x8, addend: 0x0, symName: __ZNSt3__115basic_streambufIcNS_11char_traitsIcEEE5sputnB7v160006EPKcl, symObjAddr: 0xAF38, symBinAddr: 0x10000BCBC, symSize: 0x3C }
  - { offsetInCU: 0x1C421, offset: 0x1C421, size: 0x8, addend: 0x0, symName: __ZNSt3__112basic_stringIcNS_11char_traitsIcEENS_9allocatorIcEEEC1B7v160006Emc, symObjAddr: 0xAF74, symBinAddr: 0x10000BCF8, symSize: 0x3C }
  - { offsetInCU: 0x1C469, offset: 0x1C469, size: 0x8, addend: 0x0, symName: __ZNKSt3__112basic_stringIcNS_11char_traitsIcEENS_9allocatorIcEEE4dataB7v160006Ev, symObjAddr: 0xAFB0, symBinAddr: 0x10000BD34, symSize: 0x28 }
  - { offsetInCU: 0x1C48F, offset: 0x1C48F, size: 0x8, addend: 0x0, symName: __ZNSt3__18ios_base5widthB7v160006El, symObjAddr: 0xAFD8, symBinAddr: 0x10000BD5C, symSize: 0x2C }
  - { offsetInCU: 0x1C4D5, offset: 0x1C4D5, size: 0x8, addend: 0x0, symName: __ZNSt3__112basic_stringIcNS_11char_traitsIcEENS_9allocatorIcEEEC2B7v160006Emc, symObjAddr: 0xB004, symBinAddr: 0x10000BD88, symSize: 0x54 }
  - { offsetInCU: 0x1C51D, offset: 0x1C51D, size: 0x8, addend: 0x0, symName: __ZNKSt3__112basic_stringIcNS_11char_traitsIcEENS_9allocatorIcEEE13__get_pointerB7v160006Ev, symObjAddr: 0xB06C, symBinAddr: 0x10000BDF0, symSize: 0x54 }
  - { offsetInCU: 0x1C543, offset: 0x1C543, size: 0x8, addend: 0x0, symName: __ZNKSt3__112basic_stringIcNS_11char_traitsIcEENS_9allocatorIcEEE18__get_long_pointerB7v160006Ev, symObjAddr: 0xB0C0, symBinAddr: 0x10000BE44, symSize: 0x28 }
  - { offsetInCU: 0x1C569, offset: 0x1C569, size: 0x8, addend: 0x0, symName: __ZNKSt3__112basic_stringIcNS_11char_traitsIcEENS_9allocatorIcEEE19__get_short_pointerB7v160006Ev, symObjAddr: 0xB0E8, symBinAddr: 0x10000BE6C, symSize: 0x28 }
  - { offsetInCU: 0x1C58F, offset: 0x1C58F, size: 0x8, addend: 0x0, symName: __ZNSt3__114pointer_traitsIPKcE10pointer_toB7v160006ERS1_, symObjAddr: 0xB110, symBinAddr: 0x10000BE94, symSize: 0x14 }
  - { offsetInCU: 0x1C5B2, offset: 0x1C5B2, size: 0x8, addend: 0x0, symName: __ZNSt3__119ostreambuf_iteratorIcNS_11char_traitsIcEEEC2B7v160006ERNS_13basic_ostreamIcS2_EE, symObjAddr: 0xB124, symBinAddr: 0x10000BEA8, symSize: 0x68 }
  - { offsetInCU: 0x1C5EA, offset: 0x1C5EA, size: 0x8, addend: 0x0, symName: __ZNKSt3__19basic_iosIcNS_11char_traitsIcEEE5rdbufB7v160006Ev, symObjAddr: 0xB18C, symBinAddr: 0x10000BF10, symSize: 0x24 }
  - { offsetInCU: 0x1C612, offset: 0x1C612, size: 0x8, addend: 0x0, symName: __ZNKSt3__18ios_base5rdbufB7v160006Ev, symObjAddr: 0xB1B0, symBinAddr: 0x10000BF34, symSize: 0x18 }
  - { offsetInCU: 0x1C638, offset: 0x1C638, size: 0x8, addend: 0x0, symName: __ZNSt3__111char_traitsIcE11eq_int_typeEii, symObjAddr: 0xB1C8, symBinAddr: 0x10000BF4C, symSize: 0x28 }
  - { offsetInCU: 0x1C669, offset: 0x1C669, size: 0x8, addend: 0x0, symName: __ZNSt3__111char_traitsIcE3eofEv, symObjAddr: 0xB1F0, symBinAddr: 0x10000BF74, symSize: 0x8 }
  - { offsetInCU: 0x1C67D, offset: 0x1C67D, size: 0x8, addend: 0x0, symName: __ZNKSt3__19basic_iosIcNS_11char_traitsIcEEE5widenB7v160006Ec, symObjAddr: 0xB1F8, symBinAddr: 0x10000BF7C, symSize: 0x8C }
  - { offsetInCU: 0x1C6E1, offset: 0x1C6E1, size: 0x8, addend: 0x0, symName: __ZNKSt3__15ctypeIcE5widenB7v160006Ec, symObjAddr: 0xB2B0, symBinAddr: 0x10000C034, symSize: 0x38 }
  - { offsetInCU: 0x1C716, offset: 0x1C716, size: 0x8, addend: 0x0, symName: __ZNSt3__18ios_base8setstateB7v160006Ej, symObjAddr: 0xB2E8, symBinAddr: 0x10000C06C, symSize: 0x34 }
  - { offsetInCU: 0x1C74D, offset: 0x1C74D, size: 0x8, addend: 0x0, symName: __ZNSt3__113unordered_mapIiNS_6vectorIPiNS_9allocatorIS2_EEEENS_4hashIiEENS_8equal_toIiEENS3_INS_4pairIKiS5_EEEEEC2B7v160006Ev, symObjAddr: 0xB340, symBinAddr: 0x10000C0C4, symSize: 0x64 }
  - { offsetInCU: 0x1C777, offset: 0x1C777, size: 0x8, addend: 0x0, symName: __ZNSt3__112__hash_tableINS_17__hash_value_typeIiNS_6vectorIPiNS_9allocatorIS3_EEEEEENS_22__unordered_map_hasherIiS7_NS_4hashIiEENS_8equal_toIiEELb1EEENS_21__unordered_map_equalIiS7_SC_SA_Lb1EEENS4_IS7_EEEC1Ev, symObjAddr: 0xB3A4, symBinAddr: 0x10000C128, symSize: 0x2C }
  - { offsetInCU: 0x1C7A3, offset: 0x1C7A3, size: 0x8, addend: 0x0, symName: __ZNSt3__112__hash_tableINS_17__hash_value_typeIiNS_6vectorIPiNS_9allocatorIS3_EEEEEENS_22__unordered_map_hasherIiS7_NS_4hashIiEENS_8equal_toIiEELb1EEENS_21__unordered_map_equalIiS7_SC_SA_Lb1EEENS4_IS7_EEED1Ev, symObjAddr: 0xB3E0, symBinAddr: 0x10000C164, symSize: 0x2C }
  - { offsetInCU: 0x1C7CF, offset: 0x1C7CF, size: 0x8, addend: 0x0, symName: __ZNSt3__112__hash_tableINS_17__hash_value_typeIiNS_6vectorIPiNS_9allocatorIS3_EEEEEENS_22__unordered_map_hasherIiS7_NS_4hashIiEENS_8equal_toIiEELb1EEENS_21__unordered_map_equalIiS7_SC_SA_Lb1EEENS4_IS7_EEEC2Ev, symObjAddr: 0xB40C, symBinAddr: 0x10000C190, symSize: 0xA4 }
  - { offsetInCU: 0x1C7FB, offset: 0x1C7FB, size: 0x8, addend: 0x0, symName: __ZNSt3__110unique_ptrIA_PNS_16__hash_node_baseIPNS_11__hash_nodeINS_17__hash_value_typeIiNS_6vectorIPiNS_9allocatorIS5_EEEEEEPvEEEENS_25__bucket_list_deallocatorINS6_ISE_EEEEEC1B7v160006ILb1EvEEv, symObjAddr: 0xB4B0, symBinAddr: 0x10000C234, symSize: 0x2C }
  - { offsetInCU: 0x1C830, offset: 0x1C830, size: 0x8, addend: 0x0, symName: __ZNSt3__117__compressed_pairINS_16__hash_node_baseIPNS_11__hash_nodeINS_17__hash_value_typeIiNS_6vectorIPiNS_9allocatorIS5_EEEEEEPvEEEENS6_ISB_EEEC1B7v160006ILb1EvEEv, symObjAddr: 0xB4DC, symBinAddr: 0x10000C260, symSize: 0x2C }
  - { offsetInCU: 0x1C865, offset: 0x1C865, size: 0x8, addend: 0x0, symName: __ZNSt3__117__compressed_pairImNS_22__unordered_map_hasherIiNS_17__hash_value_typeIiNS_6vectorIPiNS_9allocatorIS4_EEEEEENS_4hashIiEENS_8equal_toIiEELb1EEEEC1B7v160006IiNS_18__default_init_tagEEEOT_OT0_, symObjAddr: 0xB508, symBinAddr: 0x10000C28C, symSize: 0x3C }
  - { offsetInCU: 0x1C8BD, offset: 0x1C8BD, size: 0x8, addend: 0x0, symName: __ZNSt3__117__compressed_pairIfNS_21__unordered_map_equalIiNS_17__hash_value_typeIiNS_6vectorIPiNS_9allocatorIS4_EEEEEENS_8equal_toIiEENS_4hashIiEELb1EEEEC1B7v160006IfNS_18__default_init_tagEEEOT_OT0_, symObjAddr: 0xB544, symBinAddr: 0x10000C2C8, symSize: 0x3C }
  - { offsetInCU: 0x1C915, offset: 0x1C915, size: 0x8, addend: 0x0, symName: __ZNSt3__110unique_ptrIA_PNS_16__hash_node_baseIPNS_11__hash_nodeINS_17__hash_value_typeIiNS_6vectorIPiNS_9allocatorIS5_EEEEEEPvEEEENS_25__bucket_list_deallocatorINS6_ISE_EEEEED1B7v160006Ev, symObjAddr: 0xB580, symBinAddr: 0x10000C304, symSize: 0x2C }
  - { offsetInCU: 0x1C93F, offset: 0x1C93F, size: 0x8, addend: 0x0, symName: __ZNSt3__110unique_ptrIA_PNS_16__hash_node_baseIPNS_11__hash_nodeINS_17__hash_value_typeIiNS_6vectorIPiNS_9allocatorIS5_EEEEEEPvEEEENS_25__bucket_list_deallocatorINS6_ISE_EEEEEC2B7v160006ILb1EvEEv, symObjAddr: 0xB5AC, symBinAddr: 0x10000C330, symSize: 0x50 }
  - { offsetInCU: 0x1C974, offset: 0x1C974, size: 0x8, addend: 0x0, symName: __ZNSt3__117__compressed_pairIPPNS_16__hash_node_baseIPNS_11__hash_nodeINS_17__hash_value_typeIiNS_6vectorIPiNS_9allocatorIS5_EEEEEEPvEEEENS_25__bucket_list_deallocatorINS6_ISE_EEEEEC1B7v160006INS_16__value_init_tagESL_EEOT_OT0_, symObjAddr: 0xB5FC, symBinAddr: 0x10000C380, symSize: 0x3C }
  - { offsetInCU: 0x1C9CC, offset: 0x1C9CC, size: 0x8, addend: 0x0, symName: __ZNSt3__117__compressed_pairIPPNS_16__hash_node_baseIPNS_11__hash_nodeINS_17__hash_value_typeIiNS_6vectorIPiNS_9allocatorIS5_EEEEEEPvEEEENS_25__bucket_list_deallocatorINS6_ISE_EEEEEC2B7v160006INS_16__value_init_tagESL_EEOT_OT0_, symObjAddr: 0xB638, symBinAddr: 0x10000C3BC, symSize: 0x40 }
  - { offsetInCU: 0x1CA24, offset: 0x1CA24, size: 0x8, addend: 0x0, symName: __ZNSt3__122__compressed_pair_elemIPPNS_16__hash_node_baseIPNS_11__hash_nodeINS_17__hash_value_typeIiNS_6vectorIPiNS_9allocatorIS5_EEEEEEPvEEEELi0ELb0EEC2B7v160006ENS_16__value_init_tagE, symObjAddr: 0xB678, symBinAddr: 0x10000C3FC, symSize: 0x18 }
  - { offsetInCU: 0x1CA58, offset: 0x1CA58, size: 0x8, addend: 0x0, symName: __ZNSt3__122__compressed_pair_elemINS_25__bucket_list_deallocatorINS_9allocatorIPNS_16__hash_node_baseIPNS_11__hash_nodeINS_17__hash_value_typeIiNS_6vectorIPiNS2_IS7_EEEEEEPvEEEEEEEELi1ELb0EEC2B7v160006ENS_16__value_init_tagE, symObjAddr: 0xB690, symBinAddr: 0x10000C414, symSize: 0x2C }
  - { offsetInCU: 0x1CA8C, offset: 0x1CA8C, size: 0x8, addend: 0x0, symName: __ZNSt3__125__bucket_list_deallocatorINS_9allocatorIPNS_16__hash_node_baseIPNS_11__hash_nodeINS_17__hash_value_typeIiNS_6vectorIPiNS1_IS6_EEEEEEPvEEEEEEEC1B7v160006Ev, symObjAddr: 0xB6BC, symBinAddr: 0x10000C440, symSize: 0x2C }
  - { offsetInCU: 0x1CAB6, offset: 0x1CAB6, size: 0x8, addend: 0x0, symName: __ZNSt3__125__bucket_list_deallocatorINS_9allocatorIPNS_16__hash_node_baseIPNS_11__hash_nodeINS_17__hash_value_typeIiNS_6vectorIPiNS1_IS6_EEEEEEPvEEEEEEEC2B7v160006Ev, symObjAddr: 0xB6E8, symBinAddr: 0x10000C46C, symSize: 0x38 }
  - { offsetInCU: 0x1CAE0, offset: 0x1CAE0, size: 0x8, addend: 0x0, symName: __ZNSt3__117__compressed_pairImNS_9allocatorIPNS_16__hash_node_baseIPNS_11__hash_nodeINS_17__hash_value_typeIiNS_6vectorIPiNS1_IS6_EEEEEEPvEEEEEEEC1B7v160006IiNS_18__default_init_tagEEEOT_OT0_, symObjAddr: 0xB720, symBinAddr: 0x10000C4A4, symSize: 0x3C }
  - { offsetInCU: 0x1CB38, offset: 0x1CB38, size: 0x8, addend: 0x0, symName: __ZNSt3__117__compressed_pairImNS_9allocatorIPNS_16__hash_node_baseIPNS_11__hash_nodeINS_17__hash_value_typeIiNS_6vectorIPiNS1_IS6_EEEEEEPvEEEEEEEC2B7v160006IiNS_18__default_init_tagEEEOT_OT0_, symObjAddr: 0xB75C, symBinAddr: 0x10000C4E0, symSize: 0x40 }
  - { offsetInCU: 0x1CB90, offset: 0x1CB90, size: 0x8, addend: 0x0, symName: __ZNSt3__122__compressed_pair_elemINS_9allocatorIPNS_16__hash_node_baseIPNS_11__hash_nodeINS_17__hash_value_typeIiNS_6vectorIPiNS1_IS6_EEEEEEPvEEEEEELi1ELb1EEC2B7v160006ENS_18__default_init_tagE, symObjAddr: 0xB79C, symBinAddr: 0x10000C520, symSize: 0x2C }
  - { offsetInCU: 0x1CBC4, offset: 0x1CBC4, size: 0x8, addend: 0x0, symName: __ZNSt3__19allocatorIPNS_16__hash_node_baseIPNS_11__hash_nodeINS_17__hash_value_typeIiNS_6vectorIPiNS0_IS5_EEEEEEPvEEEEEC2B7v160006Ev, symObjAddr: 0xB7C8, symBinAddr: 0x10000C54C, symSize: 0x2C }
  - { offsetInCU: 0x1CBEE, offset: 0x1CBEE, size: 0x8, addend: 0x0, symName: __ZNSt3__116__non_trivial_ifILb1ENS_9allocatorIPNS_16__hash_node_baseIPNS_11__hash_nodeINS_17__hash_value_typeIiNS_6vectorIPiNS1_IS6_EEEEEEPvEEEEEEEC2B7v160006Ev, symObjAddr: 0xB7F4, symBinAddr: 0x10000C578, symSize: 0x14 }
  - { offsetInCU: 0x1CC18, offset: 0x1CC18, size: 0x8, addend: 0x0, symName: __ZNSt3__117__compressed_pairINS_16__hash_node_baseIPNS_11__hash_nodeINS_17__hash_value_typeIiNS_6vectorIPiNS_9allocatorIS5_EEEEEEPvEEEENS6_ISB_EEEC2B7v160006ILb1EvEEv, symObjAddr: 0xB808, symBinAddr: 0x10000C58C, symSize: 0x34 }
  - { offsetInCU: 0x1CC4D, offset: 0x1CC4D, size: 0x8, addend: 0x0, symName: __ZNSt3__122__compressed_pair_elemINS_16__hash_node_baseIPNS_11__hash_nodeINS_17__hash_value_typeIiNS_6vectorIPiNS_9allocatorIS5_EEEEEEPvEEEELi0ELb0EEC2B7v160006ENS_16__value_init_tagE, symObjAddr: 0xB83C, symBinAddr: 0x10000C5C0, symSize: 0x2C }
  - { offsetInCU: 0x1CC81, offset: 0x1CC81, size: 0x8, addend: 0x0, symName: __ZNSt3__122__compressed_pair_elemINS_9allocatorINS_11__hash_nodeINS_17__hash_value_typeIiNS_6vectorIPiNS1_IS5_EEEEEEPvEEEELi1ELb1EEC2B7v160006ENS_16__value_init_tagE, symObjAddr: 0xB868, symBinAddr: 0x10000C5EC, symSize: 0x2C }
  - { offsetInCU: 0x1CCB5, offset: 0x1CCB5, size: 0x8, addend: 0x0, symName: __ZNSt3__116__hash_node_baseIPNS_11__hash_nodeINS_17__hash_value_typeIiNS_6vectorIPiNS_9allocatorIS4_EEEEEEPvEEEC1B7v160006Ev, symObjAddr: 0xB894, symBinAddr: 0x10000C618, symSize: 0x2C }
  - { offsetInCU: 0x1CCDF, offset: 0x1CCDF, size: 0x8, addend: 0x0, symName: __ZNSt3__116__hash_node_baseIPNS_11__hash_nodeINS_17__hash_value_typeIiNS_6vectorIPiNS_9allocatorIS4_EEEEEEPvEEEC2B7v160006Ev, symObjAddr: 0xB8C0, symBinAddr: 0x10000C644, symSize: 0x18 }
  - { offsetInCU: 0x1CD09, offset: 0x1CD09, size: 0x8, addend: 0x0, symName: __ZNSt3__19allocatorINS_11__hash_nodeINS_17__hash_value_typeIiNS_6vectorIPiNS0_IS4_EEEEEEPvEEEC2B7v160006Ev, symObjAddr: 0xB8D8, symBinAddr: 0x10000C65C, symSize: 0x2C }
  - { offsetInCU: 0x1CD33, offset: 0x1CD33, size: 0x8, addend: 0x0, symName: __ZNSt3__116__non_trivial_ifILb1ENS_9allocatorINS_11__hash_nodeINS_17__hash_value_typeIiNS_6vectorIPiNS1_IS5_EEEEEEPvEEEEEC2B7v160006Ev, symObjAddr: 0xB904, symBinAddr: 0x10000C688, symSize: 0x14 }
  - { offsetInCU: 0x1CD5D, offset: 0x1CD5D, size: 0x8, addend: 0x0, symName: __ZNSt3__117__compressed_pairImNS_22__unordered_map_hasherIiNS_17__hash_value_typeIiNS_6vectorIPiNS_9allocatorIS4_EEEEEENS_4hashIiEENS_8equal_toIiEELb1EEEEC2B7v160006IiNS_18__default_init_tagEEEOT_OT0_, symObjAddr: 0xB918, symBinAddr: 0x10000C69C, symSize: 0x40 }
  - { offsetInCU: 0x1CDB5, offset: 0x1CDB5, size: 0x8, addend: 0x0, symName: __ZNSt3__122__compressed_pair_elemINS_22__unordered_map_hasherIiNS_17__hash_value_typeIiNS_6vectorIPiNS_9allocatorIS4_EEEEEENS_4hashIiEENS_8equal_toIiEELb1EEELi1ELb1EEC2B7v160006ENS_18__default_init_tagE, symObjAddr: 0xB958, symBinAddr: 0x10000C6DC, symSize: 0x2C }
  - { offsetInCU: 0x1CDE9, offset: 0x1CDE9, size: 0x8, addend: 0x0, symName: __ZNSt3__122__unordered_map_hasherIiNS_17__hash_value_typeIiNS_6vectorIPiNS_9allocatorIS3_EEEEEENS_4hashIiEENS_8equal_toIiEELb1EEC2B7v160006Ev, symObjAddr: 0xB984, symBinAddr: 0x10000C708, symSize: 0x14 }
  - { offsetInCU: 0x1CE13, offset: 0x1CE13, size: 0x8, addend: 0x0, symName: __ZNSt3__117__compressed_pairIfNS_21__unordered_map_equalIiNS_17__hash_value_typeIiNS_6vectorIPiNS_9allocatorIS4_EEEEEENS_8equal_toIiEENS_4hashIiEELb1EEEEC2B7v160006IfNS_18__default_init_tagEEEOT_OT0_, symObjAddr: 0xB998, symBinAddr: 0x10000C71C, symSize: 0x40 }
  - { offsetInCU: 0x1CE6B, offset: 0x1CE6B, size: 0x8, addend: 0x0, symName: __ZNSt3__122__compressed_pair_elemINS_21__unordered_map_equalIiNS_17__hash_value_typeIiNS_6vectorIPiNS_9allocatorIS4_EEEEEENS_8equal_toIiEENS_4hashIiEELb1EEELi1ELb1EEC2B7v160006ENS_18__default_init_tagE, symObjAddr: 0xB9D8, symBinAddr: 0x10000C75C, symSize: 0x2C }
  - { offsetInCU: 0x1CE9F, offset: 0x1CE9F, size: 0x8, addend: 0x0, symName: __ZNSt3__121__unordered_map_equalIiNS_17__hash_value_typeIiNS_6vectorIPiNS_9allocatorIS3_EEEEEENS_8equal_toIiEENS_4hashIiEELb1EEC2B7v160006Ev, symObjAddr: 0xBA04, symBinAddr: 0x10000C788, symSize: 0x14 }
  - { offsetInCU: 0x1CEC9, offset: 0x1CEC9, size: 0x8, addend: 0x0, symName: __ZNSt3__110unique_ptrIA_PNS_16__hash_node_baseIPNS_11__hash_nodeINS_17__hash_value_typeIiNS_6vectorIPiNS_9allocatorIS5_EEEEEEPvEEEENS_25__bucket_list_deallocatorINS6_ISE_EEEEED2B7v160006Ev, symObjAddr: 0xBA18, symBinAddr: 0x10000C79C, symSize: 0x30 }
  - { offsetInCU: 0x1CEF3, offset: 0x1CEF3, size: 0x8, addend: 0x0, symName: __ZNSt3__110unique_ptrIA_PNS_16__hash_node_baseIPNS_11__hash_nodeINS_17__hash_value_typeIiNS_6vectorIPiNS_9allocatorIS5_EEEEEEPvEEEENS_25__bucket_list_deallocatorINS6_ISE_EEEEE5resetB7v160006EDn, symObjAddr: 0xBA48, symBinAddr: 0x10000C7CC, symSize: 0x6C }
  - { offsetInCU: 0x1CF33, offset: 0x1CF33, size: 0x8, addend: 0x0, symName: __ZNSt3__117__compressed_pairIPPNS_16__hash_node_baseIPNS_11__hash_nodeINS_17__hash_value_typeIiNS_6vectorIPiNS_9allocatorIS5_EEEEEEPvEEEENS_25__bucket_list_deallocatorINS6_ISE_EEEEE5firstB7v160006Ev, symObjAddr: 0xBAB4, symBinAddr: 0x10000C838, symSize: 0x24 }
  - { offsetInCU: 0x1CF59, offset: 0x1CF59, size: 0x8, addend: 0x0, symName: __ZNSt3__117__compressed_pairIPPNS_16__hash_node_baseIPNS_11__hash_nodeINS_17__hash_value_typeIiNS_6vectorIPiNS_9allocatorIS5_EEEEEEPvEEEENS_25__bucket_list_deallocatorINS6_ISE_EEEEE6secondB7v160006Ev, symObjAddr: 0xBAD8, symBinAddr: 0x10000C85C, symSize: 0x28 }
  - { offsetInCU: 0x1CF7F, offset: 0x1CF7F, size: 0x8, addend: 0x0, symName: __ZNSt3__125__bucket_list_deallocatorINS_9allocatorIPNS_16__hash_node_baseIPNS_11__hash_nodeINS_17__hash_value_typeIiNS_6vectorIPiNS1_IS6_EEEEEEPvEEEEEEEclB7v160006EPSE_, symObjAddr: 0xBB00, symBinAddr: 0x10000C884, symSize: 0x58 }
  - { offsetInCU: 0x1CFB4, offset: 0x1CFB4, size: 0x8, addend: 0x0, symName: __ZNSt3__122__compressed_pair_elemIPPNS_16__hash_node_baseIPNS_11__hash_nodeINS_17__hash_value_typeIiNS_6vectorIPiNS_9allocatorIS5_EEEEEEPvEEEELi0ELb0EE5__getB7v160006Ev, symObjAddr: 0xBB58, symBinAddr: 0x10000C8DC, symSize: 0x14 }
  - { offsetInCU: 0x1CFDA, offset: 0x1CFDA, size: 0x8, addend: 0x0, symName: __ZNSt3__122__compressed_pair_elemINS_25__bucket_list_deallocatorINS_9allocatorIPNS_16__hash_node_baseIPNS_11__hash_nodeINS_17__hash_value_typeIiNS_6vectorIPiNS2_IS7_EEEEEEPvEEEEEEEELi1ELb0EE5__getB7v160006Ev, symObjAddr: 0xBB6C, symBinAddr: 0x10000C8F0, symSize: 0x14 }
  - { offsetInCU: 0x1D000, offset: 0x1D000, size: 0x8, addend: 0x0, symName: __ZNSt3__116allocator_traitsINS_9allocatorIPNS_16__hash_node_baseIPNS_11__hash_nodeINS_17__hash_value_typeIiNS_6vectorIPiNS1_IS6_EEEEEEPvEEEEEEE10deallocateB7v160006ERSF_PSE_m, symObjAddr: 0xBB80, symBinAddr: 0x10000C904, symSize: 0x34 }
  - { offsetInCU: 0x1D042, offset: 0x1D042, size: 0x8, addend: 0x0, symName: __ZNSt3__125__bucket_list_deallocatorINS_9allocatorIPNS_16__hash_node_baseIPNS_11__hash_nodeINS_17__hash_value_typeIiNS_6vectorIPiNS1_IS6_EEEEEEPvEEEEEEE7__allocB7v160006Ev, symObjAddr: 0xBBB4, symBinAddr: 0x10000C938, symSize: 0x24 }
  - { offsetInCU: 0x1D068, offset: 0x1D068, size: 0x8, addend: 0x0, symName: __ZNSt3__125__bucket_list_deallocatorINS_9allocatorIPNS_16__hash_node_baseIPNS_11__hash_nodeINS_17__hash_value_typeIiNS_6vectorIPiNS1_IS6_EEEEEEPvEEEEEEE4sizeB7v160006Ev, symObjAddr: 0xBBD8, symBinAddr: 0x10000C95C, symSize: 0x24 }
  - { offsetInCU: 0x1D08E, offset: 0x1D08E, size: 0x8, addend: 0x0, symName: __ZNSt3__19allocatorIPNS_16__hash_node_baseIPNS_11__hash_nodeINS_17__hash_value_typeIiNS_6vectorIPiNS0_IS5_EEEEEEPvEEEEE10deallocateB7v160006EPSD_m, symObjAddr: 0xBBFC, symBinAddr: 0x10000C980, symSize: 0x70 }
  - { offsetInCU: 0x1D0D0, offset: 0x1D0D0, size: 0x8, addend: 0x0, symName: __ZNSt3__117__compressed_pairImNS_9allocatorIPNS_16__hash_node_baseIPNS_11__hash_nodeINS_17__hash_value_typeIiNS_6vectorIPiNS1_IS6_EEEEEEPvEEEEEEE6secondB7v160006Ev, symObjAddr: 0xBC6C, symBinAddr: 0x10000C9F0, symSize: 0x24 }
  - { offsetInCU: 0x1D0F6, offset: 0x1D0F6, size: 0x8, addend: 0x0, symName: __ZNSt3__122__compressed_pair_elemINS_9allocatorIPNS_16__hash_node_baseIPNS_11__hash_nodeINS_17__hash_value_typeIiNS_6vectorIPiNS1_IS6_EEEEEEPvEEEEEELi1ELb1EE5__getB7v160006Ev, symObjAddr: 0xBC90, symBinAddr: 0x10000CA14, symSize: 0x14 }
  - { offsetInCU: 0x1D11C, offset: 0x1D11C, size: 0x8, addend: 0x0, symName: __ZNSt3__117__compressed_pairImNS_9allocatorIPNS_16__hash_node_baseIPNS_11__hash_nodeINS_17__hash_value_typeIiNS_6vectorIPiNS1_IS6_EEEEEEPvEEEEEEE5firstB7v160006Ev, symObjAddr: 0xBCA4, symBinAddr: 0x10000CA28, symSize: 0x24 }
  - { offsetInCU: 0x1D142, offset: 0x1D142, size: 0x8, addend: 0x0, symName: __ZNSt3__112__hash_tableINS_17__hash_value_typeIiNS_6vectorIPiNS_9allocatorIS3_EEEEEENS_22__unordered_map_hasherIiS7_NS_4hashIiEENS_8equal_toIiEELb1EEENS_21__unordered_map_equalIiS7_SC_SA_Lb1EEENS4_IS7_EEED2Ev, symObjAddr: 0xBCC8, symBinAddr: 0x10000CA4C, symSize: 0x80 }
  - { offsetInCU: 0x1D16E, offset: 0x1D16E, size: 0x8, addend: 0x0, symName: __ZNSt3__112__hash_tableINS_17__hash_value_typeIiNS_6vectorIPiNS_9allocatorIS3_EEEEEENS_22__unordered_map_hasherIiS7_NS_4hashIiEENS_8equal_toIiEELb1EEENS_21__unordered_map_equalIiS7_SC_SA_Lb1EEENS4_IS7_EEE17__deallocate_nodeEPNS_16__hash_node_baseIPNS_11__hash_nodeIS7_PvEEEE, symObjAddr: 0xBD48, symBinAddr: 0x10000CACC, symSize: 0xBC }
  - { offsetInCU: 0x1D1D8, offset: 0x1D1D8, size: 0x8, addend: 0x0, symName: __ZNSt3__117__compressed_pairINS_16__hash_node_baseIPNS_11__hash_nodeINS_17__hash_value_typeIiNS_6vectorIPiNS_9allocatorIS5_EEEEEEPvEEEENS6_ISB_EEE5firstB7v160006Ev, symObjAddr: 0xBE04, symBinAddr: 0x10000CB88, symSize: 0x24 }
  - { offsetInCU: 0x1D1FE, offset: 0x1D1FE, size: 0x8, addend: 0x0, symName: __ZNSt3__112__hash_tableINS_17__hash_value_typeIiNS_6vectorIPiNS_9allocatorIS3_EEEEEENS_22__unordered_map_hasherIiS7_NS_4hashIiEENS_8equal_toIiEELb1EEENS_21__unordered_map_equalIiS7_SC_SA_Lb1EEENS4_IS7_EEE12__node_allocB7v160006Ev, symObjAddr: 0xBE38, symBinAddr: 0x10000CBBC, symSize: 0x28 }
  - { offsetInCU: 0x1D224, offset: 0x1D224, size: 0x8, addend: 0x0, symName: __ZNSt3__116__hash_node_baseIPNS_11__hash_nodeINS_17__hash_value_typeIiNS_6vectorIPiNS_9allocatorIS4_EEEEEEPvEEE8__upcastB7v160006Ev, symObjAddr: 0xBE60, symBinAddr: 0x10000CBE4, symSize: 0x24 }
  - { offsetInCU: 0x1D24A, offset: 0x1D24A, size: 0x8, addend: 0x0, symName: __ZNSt3__116allocator_traitsINS_9allocatorINS_11__hash_nodeINS_17__hash_value_typeIiNS_6vectorIPiNS1_IS5_EEEEEEPvEEEEE7destroyB7v160006INS_4pairIKiS7_EEvvEEvRSB_PT_, symObjAddr: 0xBE84, symBinAddr: 0x10000CC08, symSize: 0x28 }
  - { offsetInCU: 0x1D284, offset: 0x1D284, size: 0x8, addend: 0x0, symName: __ZNSt3__122__hash_key_value_typesINS_17__hash_value_typeIiNS_6vectorIPiNS_9allocatorIS3_EEEEEEE9__get_ptrB7v160006ERS7_, symObjAddr: 0xBEAC, symBinAddr: 0x10000CC30, symSize: 0x24 }
  - { offsetInCU: 0x1D2A7, offset: 0x1D2A7, size: 0x8, addend: 0x0, symName: __ZNSt3__116allocator_traitsINS_9allocatorINS_11__hash_nodeINS_17__hash_value_typeIiNS_6vectorIPiNS1_IS5_EEEEEEPvEEEEE10deallocateB7v160006ERSB_PSA_m, symObjAddr: 0xBED0, symBinAddr: 0x10000CC54, symSize: 0x34 }
  - { offsetInCU: 0x1D2E9, offset: 0x1D2E9, size: 0x8, addend: 0x0, symName: __ZNSt3__117__compressed_pairINS_16__hash_node_baseIPNS_11__hash_nodeINS_17__hash_value_typeIiNS_6vectorIPiNS_9allocatorIS5_EEEEEEPvEEEENS6_ISB_EEE6secondB7v160006Ev, symObjAddr: 0xBF04, symBinAddr: 0x10000CC88, symSize: 0x24 }
  - { offsetInCU: 0x1D30F, offset: 0x1D30F, size: 0x8, addend: 0x0, symName: __ZNSt3__122__compressed_pair_elemINS_9allocatorINS_11__hash_nodeINS_17__hash_value_typeIiNS_6vectorIPiNS1_IS5_EEEEEEPvEEEELi1ELb1EE5__getB7v160006Ev, symObjAddr: 0xBF28, symBinAddr: 0x10000CCAC, symSize: 0x14 }
  - { offsetInCU: 0x1D335, offset: 0x1D335, size: 0x8, addend: 0x0, symName: __ZNSt3__114pointer_traitsIPNS_16__hash_node_baseIPNS_11__hash_nodeINS_17__hash_value_typeIiNS_6vectorIPiNS_9allocatorIS5_EEEEEEPvEEEEE10pointer_toB7v160006ERSD_, symObjAddr: 0xBF3C, symBinAddr: 0x10000CCC0, symSize: 0x14 }
  - { offsetInCU: 0x1D358, offset: 0x1D358, size: 0x8, addend: 0x0, symName: __ZNSt3__14pairIKiNS_6vectorIPiNS_9allocatorIS3_EEEEED1Ev, symObjAddr: 0xBF50, symBinAddr: 0x10000CCD4, symSize: 0x2C }
  - { offsetInCU: 0x1D384, offset: 0x1D384, size: 0x8, addend: 0x0, symName: __ZNSt3__14pairIKiNS_6vectorIPiNS_9allocatorIS3_EEEEED2Ev, symObjAddr: 0xBF7C, symBinAddr: 0x10000CD00, symSize: 0x30 }
  - { offsetInCU: 0x1D3B0, offset: 0x1D3B0, size: 0x8, addend: 0x0, symName: __ZNSt3__117__hash_value_typeIiNS_6vectorIPiNS_9allocatorIS2_EEEEE11__get_valueB7v160006Ev, symObjAddr: 0xBFAC, symBinAddr: 0x10000CD30, symSize: 0x14 }
  - { offsetInCU: 0x1D3D6, offset: 0x1D3D6, size: 0x8, addend: 0x0, symName: __ZNSt3__19allocatorINS_11__hash_nodeINS_17__hash_value_typeIiNS_6vectorIPiNS0_IS4_EEEEEEPvEEE10deallocateB7v160006EPS9_m, symObjAddr: 0xBFC0, symBinAddr: 0x10000CD44, symSize: 0x74 }
  - { offsetInCU: 0x1D418, offset: 0x1D418, size: 0x8, addend: 0x0, symName: __ZNSt3__122__compressed_pair_elemINS_16__hash_node_baseIPNS_11__hash_nodeINS_17__hash_value_typeIiNS_6vectorIPiNS_9allocatorIS5_EEEEEEPvEEEELi0ELb0EE5__getB7v160006Ev, symObjAddr: 0xC034, symBinAddr: 0x10000CDB8, symSize: 0x14 }
  - { offsetInCU: 0x1D43E, offset: 0x1D43E, size: 0x8, addend: 0x0, symName: __ZNSt3__113unordered_mapIiNS_6vectorIPiNS_9allocatorIS2_EEEENS_4hashIiEENS_8equal_toIiEENS3_INS_4pairIKiS5_EEEEED2B7v160006Ev, symObjAddr: 0xC048, symBinAddr: 0x10000CDCC, symSize: 0x2C }
  - { offsetInCU: 0x1D468, offset: 0x1D468, size: 0x8, addend: 0x0, symName: __ZNSt3__112__hash_tableINS_17__hash_value_typeIiNS_6vectorIPiNS_9allocatorIS3_EEEEEENS_22__unordered_map_hasherIiS7_NS_4hashIiEENS_8equal_toIiEELb1EEENS_21__unordered_map_equalIiS7_SC_SA_Lb1EEENS4_IS7_EEE4findIiEENS_15__hash_iteratorIPNS_11__hash_nodeIS7_PvEEEERKT_, symObjAddr: 0xC074, symBinAddr: 0x10000CDF8, symSize: 0x1B4 }
  - { offsetInCU: 0x1D4F3, offset: 0x1D4F3, size: 0x8, addend: 0x0, symName: __ZNSt3__119__hash_map_iteratorINS_15__hash_iteratorIPNS_11__hash_nodeINS_17__hash_value_typeIiNS_6vectorIPiNS_9allocatorIS5_EEEEEEPvEEEEEC1B7v160006ESD_, symObjAddr: 0xC228, symBinAddr: 0x10000CFAC, symSize: 0x34 }
  - { offsetInCU: 0x1D52C, offset: 0x1D52C, size: 0x8, addend: 0x0, symName: __ZNSt3__112__hash_tableINS_17__hash_value_typeIiNS_6vectorIPiNS_9allocatorIS3_EEEEEENS_22__unordered_map_hasherIiS7_NS_4hashIiEENS_8equal_toIiEELb1EEENS_21__unordered_map_equalIiS7_SC_SA_Lb1EEENS4_IS7_EEE13hash_functionB7v160006Ev, symObjAddr: 0xC25C, symBinAddr: 0x10000CFE0, symSize: 0x28 }
  - { offsetInCU: 0x1D552, offset: 0x1D552, size: 0x8, addend: 0x0, symName: __ZNKSt3__122__unordered_map_hasherIiNS_17__hash_value_typeIiNS_6vectorIPiNS_9allocatorIS3_EEEEEENS_4hashIiEENS_8equal_toIiEELb1EEclB7v160006ERKi, symObjAddr: 0xC284, symBinAddr: 0x10000D008, symSize: 0x30 }
  - { offsetInCU: 0x1D587, offset: 0x1D587, size: 0x8, addend: 0x0, symName: __ZNKSt3__112__hash_tableINS_17__hash_value_typeIiNS_6vectorIPiNS_9allocatorIS3_EEEEEENS_22__unordered_map_hasherIiS7_NS_4hashIiEENS_8equal_toIiEELb1EEENS_21__unordered_map_equalIiS7_SC_SA_Lb1EEENS4_IS7_EEE12bucket_countB7v160006Ev, symObjAddr: 0xC2B4, symBinAddr: 0x10000D038, symSize: 0x28 }
  - { offsetInCU: 0x1D5AD, offset: 0x1D5AD, size: 0x8, addend: 0x0, symName: __ZNKSt3__110unique_ptrIA_PNS_16__hash_node_baseIPNS_11__hash_nodeINS_17__hash_value_typeIiNS_6vectorIPiNS_9allocatorIS5_EEEEEEPvEEEENS_25__bucket_list_deallocatorINS6_ISE_EEEEEixB7v160006Em, symObjAddr: 0xC2DC, symBinAddr: 0x10000D060, symSize: 0x34 }
  - { offsetInCU: 0x1D5E2, offset: 0x1D5E2, size: 0x8, addend: 0x0, symName: __ZNKSt3__116__hash_node_baseIPNS_11__hash_nodeINS_17__hash_value_typeIiNS_6vectorIPiNS_9allocatorIS4_EEEEEEPvEEE6__hashB7v160006Ev, symObjAddr: 0xC310, symBinAddr: 0x10000D094, symSize: 0x18 }
  - { offsetInCU: 0x1D608, offset: 0x1D608, size: 0x8, addend: 0x0, symName: __ZNSt3__112__hash_tableINS_17__hash_value_typeIiNS_6vectorIPiNS_9allocatorIS3_EEEEEENS_22__unordered_map_hasherIiS7_NS_4hashIiEENS_8equal_toIiEELb1EEENS_21__unordered_map_equalIiS7_SC_SA_Lb1EEENS4_IS7_EEE6key_eqB7v160006Ev, symObjAddr: 0xC328, symBinAddr: 0x10000D0AC, symSize: 0x28 }
  - { offsetInCU: 0x1D62E, offset: 0x1D62E, size: 0x8, addend: 0x0, symName: __ZNKSt3__121__unordered_map_equalIiNS_17__hash_value_typeIiNS_6vectorIPiNS_9allocatorIS3_EEEEEENS_8equal_toIiEENS_4hashIiEELb1EEclB7v160006ERKS7_RKi, symObjAddr: 0xC350, symBinAddr: 0x10000D0D4, symSize: 0x48 }
  - { offsetInCU: 0x1D672, offset: 0x1D672, size: 0x8, addend: 0x0, symName: __ZNSt3__115__hash_iteratorIPNS_11__hash_nodeINS_17__hash_value_typeIiNS_6vectorIPiNS_9allocatorIS4_EEEEEEPvEEEC1B7v160006EPNS_16__hash_node_baseISB_EEPKv, symObjAddr: 0xC398, symBinAddr: 0x10000D11C, symSize: 0x3C }
  - { offsetInCU: 0x1D6BA, offset: 0x1D6BA, size: 0x8, addend: 0x0, symName: __ZNSt3__112__hash_tableINS_17__hash_value_typeIiNS_6vectorIPiNS_9allocatorIS3_EEEEEENS_22__unordered_map_hasherIiS7_NS_4hashIiEENS_8equal_toIiEELb1EEENS_21__unordered_map_equalIiS7_SC_SA_Lb1EEENS4_IS7_EEE3endEv, symObjAddr: 0xC3D4, symBinAddr: 0x10000D158, symSize: 0x30 }
  - { offsetInCU: 0x1D6E2, offset: 0x1D6E2, size: 0x8, addend: 0x0, symName: __ZNSt3__117__compressed_pairImNS_22__unordered_map_hasherIiNS_17__hash_value_typeIiNS_6vectorIPiNS_9allocatorIS4_EEEEEENS_4hashIiEENS_8equal_toIiEELb1EEEE6secondB7v160006Ev, symObjAddr: 0xC404, symBinAddr: 0x10000D188, symSize: 0x24 }
  - { offsetInCU: 0x1D708, offset: 0x1D708, size: 0x8, addend: 0x0, symName: __ZNSt3__122__compressed_pair_elemINS_22__unordered_map_hasherIiNS_17__hash_value_typeIiNS_6vectorIPiNS_9allocatorIS4_EEEEEENS_4hashIiEENS_8equal_toIiEELb1EEELi1ELb1EE5__getB7v160006Ev, symObjAddr: 0xC428, symBinAddr: 0x10000D1AC, symSize: 0x14 }
  - { offsetInCU: 0x1D72E, offset: 0x1D72E, size: 0x8, addend: 0x0, symName: __ZNKSt3__14hashIiEclB7v160006Ei, symObjAddr: 0xC43C, symBinAddr: 0x10000D1C0, symSize: 0x18 }
  - { offsetInCU: 0x1D763, offset: 0x1D763, size: 0x8, addend: 0x0, symName: __ZNKSt3__110unique_ptrIA_PNS_16__hash_node_baseIPNS_11__hash_nodeINS_17__hash_value_typeIiNS_6vectorIPiNS_9allocatorIS5_EEEEEEPvEEEENS_25__bucket_list_deallocatorINS6_ISE_EEEEE11get_deleterB7v160006Ev, symObjAddr: 0xC454, symBinAddr: 0x10000D1D8, symSize: 0x24 }
  - { offsetInCU: 0x1D789, offset: 0x1D789, size: 0x8, addend: 0x0, symName: __ZNKSt3__125__bucket_list_deallocatorINS_9allocatorIPNS_16__hash_node_baseIPNS_11__hash_nodeINS_17__hash_value_typeIiNS_6vectorIPiNS1_IS6_EEEEEEPvEEEEEEE4sizeB7v160006Ev, symObjAddr: 0xC478, symBinAddr: 0x10000D1FC, symSize: 0x28 }
  - { offsetInCU: 0x1D7AF, offset: 0x1D7AF, size: 0x8, addend: 0x0, symName: __ZNKSt3__117__compressed_pairIPPNS_16__hash_node_baseIPNS_11__hash_nodeINS_17__hash_value_typeIiNS_6vectorIPiNS_9allocatorIS5_EEEEEEPvEEEENS_25__bucket_list_deallocatorINS6_ISE_EEEEE6secondB7v160006Ev, symObjAddr: 0xC4A0, symBinAddr: 0x10000D224, symSize: 0x28 }
  - { offsetInCU: 0x1D7D5, offset: 0x1D7D5, size: 0x8, addend: 0x0, symName: __ZNKSt3__122__compressed_pair_elemINS_25__bucket_list_deallocatorINS_9allocatorIPNS_16__hash_node_baseIPNS_11__hash_nodeINS_17__hash_value_typeIiNS_6vectorIPiNS2_IS7_EEEEEEPvEEEEEEEELi1ELb0EE5__getB7v160006Ev, symObjAddr: 0xC4C8, symBinAddr: 0x10000D24C, symSize: 0x14 }
  - { offsetInCU: 0x1D7FB, offset: 0x1D7FB, size: 0x8, addend: 0x0, symName: __ZNKSt3__117__compressed_pairImNS_9allocatorIPNS_16__hash_node_baseIPNS_11__hash_nodeINS_17__hash_value_typeIiNS_6vectorIPiNS1_IS6_EEEEEEPvEEEEEEE5firstB7v160006Ev, symObjAddr: 0xC4DC, symBinAddr: 0x10000D260, symSize: 0x24 }
  - { offsetInCU: 0x1D821, offset: 0x1D821, size: 0x8, addend: 0x0, symName: __ZNKSt3__117__compressed_pairIPPNS_16__hash_node_baseIPNS_11__hash_nodeINS_17__hash_value_typeIiNS_6vectorIPiNS_9allocatorIS5_EEEEEEPvEEEENS_25__bucket_list_deallocatorINS6_ISE_EEEEE5firstB7v160006Ev, symObjAddr: 0xC500, symBinAddr: 0x10000D284, symSize: 0x24 }
  - { offsetInCU: 0x1D847, offset: 0x1D847, size: 0x8, addend: 0x0, symName: __ZNKSt3__122__compressed_pair_elemIPPNS_16__hash_node_baseIPNS_11__hash_nodeINS_17__hash_value_typeIiNS_6vectorIPiNS_9allocatorIS5_EEEEEEPvEEEELi0ELb0EE5__getB7v160006Ev, symObjAddr: 0xC524, symBinAddr: 0x10000D2A8, symSize: 0x14 }
  - { offsetInCU: 0x1D86D, offset: 0x1D86D, size: 0x8, addend: 0x0, symName: __ZNSt3__117__compressed_pairIfNS_21__unordered_map_equalIiNS_17__hash_value_typeIiNS_6vectorIPiNS_9allocatorIS4_EEEEEENS_8equal_toIiEENS_4hashIiEELb1EEEE6secondB7v160006Ev, symObjAddr: 0xC538, symBinAddr: 0x10000D2BC, symSize: 0x24 }
  - { offsetInCU: 0x1D893, offset: 0x1D893, size: 0x8, addend: 0x0, symName: __ZNSt3__122__compressed_pair_elemINS_21__unordered_map_equalIiNS_17__hash_value_typeIiNS_6vectorIPiNS_9allocatorIS4_EEEEEENS_8equal_toIiEENS_4hashIiEELb1EEELi1ELb1EE5__getB7v160006Ev, symObjAddr: 0xC55C, symBinAddr: 0x10000D2E0, symSize: 0x14 }
  - { offsetInCU: 0x1D8B9, offset: 0x1D8B9, size: 0x8, addend: 0x0, symName: __ZNKSt3__18equal_toIiEclB7v160006ERKiS3_, symObjAddr: 0xC570, symBinAddr: 0x10000D2F4, symSize: 0x34 }
  - { offsetInCU: 0x1D8FD, offset: 0x1D8FD, size: 0x8, addend: 0x0, symName: __ZNKSt3__117__hash_value_typeIiNS_6vectorIPiNS_9allocatorIS2_EEEEE11__get_valueB7v160006Ev, symObjAddr: 0xC5A4, symBinAddr: 0x10000D328, symSize: 0x14 }
  - { offsetInCU: 0x1D923, offset: 0x1D923, size: 0x8, addend: 0x0, symName: __ZNSt3__115__hash_iteratorIPNS_11__hash_nodeINS_17__hash_value_typeIiNS_6vectorIPiNS_9allocatorIS4_EEEEEEPvEEEC2B7v160006EPNS_16__hash_node_baseISB_EEPKv, symObjAddr: 0xC5B8, symBinAddr: 0x10000D33C, symSize: 0x24 }
  - { offsetInCU: 0x1D96B, offset: 0x1D96B, size: 0x8, addend: 0x0, symName: __ZNSt3__119__hash_map_iteratorINS_15__hash_iteratorIPNS_11__hash_nodeINS_17__hash_value_typeIiNS_6vectorIPiNS_9allocatorIS5_EEEEEEPvEEEEEC2B7v160006ESD_, symObjAddr: 0xC5DC, symBinAddr: 0x10000D360, symSize: 0x20 }
  - { offsetInCU: 0x1D9A4, offset: 0x1D9A4, size: 0x8, addend: 0x0, symName: __ZNSt3__16vectorIPiNS_9allocatorIS1_EEEC2B7v160006Ev, symObjAddr: 0xC62C, symBinAddr: 0x10000D3B0, symSize: 0x4C }
  - { offsetInCU: 0x1D9CE, offset: 0x1D9CE, size: 0x8, addend: 0x0, symName: __ZNSt3__117__compressed_pairIPPiNS_9allocatorIS1_EEEC1B7v160006IDnNS_18__default_init_tagEEEOT_OT0_, symObjAddr: 0xC678, symBinAddr: 0x10000D3FC, symSize: 0x3C }
  - { offsetInCU: 0x1DA26, offset: 0x1DA26, size: 0x8, addend: 0x0, symName: __ZNSt3__117__compressed_pairIPPiNS_9allocatorIS1_EEEC2B7v160006IDnNS_18__default_init_tagEEEOT_OT0_, symObjAddr: 0xC6C4, symBinAddr: 0x10000D448, symSize: 0x40 }
  - { offsetInCU: 0x1DA7E, offset: 0x1DA7E, size: 0x8, addend: 0x0, symName: __ZNSt3__122__compressed_pair_elemIPPiLi0ELb0EEC2B7v160006IDnvEEOT_, symObjAddr: 0xC704, symBinAddr: 0x10000D488, symSize: 0x1C }
  - { offsetInCU: 0x1DAC0, offset: 0x1DAC0, size: 0x8, addend: 0x0, symName: __ZNSt3__122__compressed_pair_elemINS_9allocatorIPiEELi1ELb1EEC2B7v160006ENS_18__default_init_tagE, symObjAddr: 0xC720, symBinAddr: 0x10000D4A4, symSize: 0x2C }
  - { offsetInCU: 0x1DAF4, offset: 0x1DAF4, size: 0x8, addend: 0x0, symName: __ZNSt3__19allocatorIPiEC2B7v160006Ev, symObjAddr: 0xC74C, symBinAddr: 0x10000D4D0, symSize: 0x2C }
  - { offsetInCU: 0x1DB1E, offset: 0x1DB1E, size: 0x8, addend: 0x0, symName: __ZNSt3__116__non_trivial_ifILb1ENS_9allocatorIPiEEEC2B7v160006Ev, symObjAddr: 0xC778, symBinAddr: 0x10000D4FC, symSize: 0x14 }
  - { offsetInCU: 0x1DB48, offset: 0x1DB48, size: 0x8, addend: 0x0, symName: __ZNSt3__16vectorIPiNS_9allocatorIS1_EEED2B7v160006Ev, symObjAddr: 0xC78C, symBinAddr: 0x10000D510, symSize: 0x3C }
  - { offsetInCU: 0x1DB72, offset: 0x1DB72, size: 0x8, addend: 0x0, symName: __ZNSt3__16vectorIPiNS_9allocatorIS1_EEE16__destroy_vectorC1ERS4_, symObjAddr: 0xC7C8, symBinAddr: 0x10000D54C, symSize: 0x34 }
  - { offsetInCU: 0x1DBAB, offset: 0x1DBAB, size: 0x8, addend: 0x0, symName: __ZNSt3__16vectorIPiNS_9allocatorIS1_EEE16__destroy_vectorclB7v160006Ev, symObjAddr: 0xC7FC, symBinAddr: 0x10000D580, symSize: 0x9C }
  - { offsetInCU: 0x1DBD1, offset: 0x1DBD1, size: 0x8, addend: 0x0, symName: __ZNSt3__16vectorIPiNS_9allocatorIS1_EEE16__destroy_vectorC2ERS4_, symObjAddr: 0xC898, symBinAddr: 0x10000D61C, symSize: 0x20 }
  - { offsetInCU: 0x1DC0A, offset: 0x1DC0A, size: 0x8, addend: 0x0, symName: __ZNKSt3__16vectorIPiNS_9allocatorIS1_EEE17__annotate_deleteB7v160006Ev, symObjAddr: 0xC8B8, symBinAddr: 0x10000D63C, symSize: 0xB8 }
  - { offsetInCU: 0x1DC30, offset: 0x1DC30, size: 0x8, addend: 0x0, symName: __ZNSt3__16vectorIPiNS_9allocatorIS1_EEE7__clearB7v160006Ev, symObjAddr: 0xC980, symBinAddr: 0x10000D704, symSize: 0x28 }
  - { offsetInCU: 0x1DC56, offset: 0x1DC56, size: 0x8, addend: 0x0, symName: __ZNSt3__116allocator_traitsINS_9allocatorIPiEEE10deallocateB7v160006ERS3_PS2_m, symObjAddr: 0xC9A8, symBinAddr: 0x10000D72C, symSize: 0x34 }
  - { offsetInCU: 0x1DC98, offset: 0x1DC98, size: 0x8, addend: 0x0, symName: __ZNSt3__16vectorIPiNS_9allocatorIS1_EEE7__allocB7v160006Ev, symObjAddr: 0xC9DC, symBinAddr: 0x10000D760, symSize: 0x28 }
  - { offsetInCU: 0x1DCBE, offset: 0x1DCBE, size: 0x8, addend: 0x0, symName: __ZNKSt3__16vectorIPiNS_9allocatorIS1_EEE8capacityB7v160006Ev, symObjAddr: 0xCA04, symBinAddr: 0x10000D788, symSize: 0x40 }
  - { offsetInCU: 0x1DCE4, offset: 0x1DCE4, size: 0x8, addend: 0x0, symName: __ZNKSt3__16vectorIPiNS_9allocatorIS1_EEE31__annotate_contiguous_containerB7v160006EPKvS6_S6_S6_, symObjAddr: 0xCA44, symBinAddr: 0x10000D7C8, symSize: 0x20 }
  - { offsetInCU: 0x1DD36, offset: 0x1DD36, size: 0x8, addend: 0x0, symName: __ZNKSt3__16vectorIPiNS_9allocatorIS1_EEE4dataB7v160006Ev, symObjAddr: 0xCA64, symBinAddr: 0x10000D7E8, symSize: 0x28 }
  - { offsetInCU: 0x1DD5C, offset: 0x1DD5C, size: 0x8, addend: 0x0, symName: __ZNSt3__16vectorIPiNS_9allocatorIS1_EEE22__base_destruct_at_endB7v160006EPS1_, symObjAddr: 0xCAA0, symBinAddr: 0x10000D824, symSize: 0xA0 }
  - { offsetInCU: 0x1DDA0, offset: 0x1DDA0, size: 0x8, addend: 0x0, symName: __ZNSt3__116allocator_traitsINS_9allocatorIPiEEE7destroyB7v160006IS2_vEEvRS3_PT_, symObjAddr: 0xCB40, symBinAddr: 0x10000D8C4, symSize: 0x2C }
  - { offsetInCU: 0x1DDDD, offset: 0x1DDDD, size: 0x8, addend: 0x0, symName: __ZNSt3__19allocatorIPiE7destroyB7v160006EPS1_, symObjAddr: 0xCB6C, symBinAddr: 0x10000D8F0, symSize: 0x14 }
  - { offsetInCU: 0x1DE11, offset: 0x1DE11, size: 0x8, addend: 0x0, symName: __ZNSt3__19allocatorIPiE10deallocateB7v160006EPS1_m, symObjAddr: 0xCB80, symBinAddr: 0x10000D904, symSize: 0x70 }
  - { offsetInCU: 0x1DE53, offset: 0x1DE53, size: 0x8, addend: 0x0, symName: __ZNSt3__117__compressed_pairIPPiNS_9allocatorIS1_EEE6secondB7v160006Ev, symObjAddr: 0xCBF0, symBinAddr: 0x10000D974, symSize: 0x24 }
  - { offsetInCU: 0x1DE79, offset: 0x1DE79, size: 0x8, addend: 0x0, symName: __ZNSt3__122__compressed_pair_elemINS_9allocatorIPiEELi1ELb1EE5__getB7v160006Ev, symObjAddr: 0xCC14, symBinAddr: 0x10000D998, symSize: 0x14 }
  - { offsetInCU: 0x1DE9F, offset: 0x1DE9F, size: 0x8, addend: 0x0, symName: __ZNKSt3__16vectorIPiNS_9allocatorIS1_EEE9__end_capB7v160006Ev, symObjAddr: 0xCC28, symBinAddr: 0x10000D9AC, symSize: 0x28 }
  - { offsetInCU: 0x1DEC5, offset: 0x1DEC5, size: 0x8, addend: 0x0, symName: __ZNKSt3__117__compressed_pairIPPiNS_9allocatorIS1_EEE5firstB7v160006Ev, symObjAddr: 0xCC50, symBinAddr: 0x10000D9D4, symSize: 0x24 }
  - { offsetInCU: 0x1DEEB, offset: 0x1DEEB, size: 0x8, addend: 0x0, symName: __ZNKSt3__122__compressed_pair_elemIPPiLi0ELb0EE5__getB7v160006Ev, symObjAddr: 0xCC74, symBinAddr: 0x10000D9F8, symSize: 0x14 }
  - { offsetInCU: 0x1DF11, offset: 0x1DF11, size: 0x8, addend: 0x0, symName: __ZNSt3__16vectorIPiNS_9allocatorIS1_EEE9__end_capB7v160006Ev, symObjAddr: 0xCC88, symBinAddr: 0x10000DA0C, symSize: 0x28 }
  - { offsetInCU: 0x1DF37, offset: 0x1DF37, size: 0x8, addend: 0x0, symName: __ZNSt3__16vectorIPiNS_9allocatorIS1_EEE22__construct_one_at_endB7v160006IJRKS1_EEEvDpOT_, symObjAddr: 0xCCB0, symBinAddr: 0x10000DA34, symSize: 0x98 }
  - { offsetInCU: 0x1DF86, offset: 0x1DF86, size: 0x8, addend: 0x0, symName: __ZNSt3__16vectorIPiNS_9allocatorIS1_EEE21__push_back_slow_pathIRKS1_EEvOT_, symObjAddr: 0xCD48, symBinAddr: 0x10000DACC, symSize: 0xE0 }
  - { offsetInCU: 0x1DFE4, offset: 0x1DFE4, size: 0x8, addend: 0x0, symName: __ZNSt3__117__compressed_pairIPPiNS_9allocatorIS1_EEE5firstB7v160006Ev, symObjAddr: 0xCE28, symBinAddr: 0x10000DBAC, symSize: 0x24 }
  - { offsetInCU: 0x1E00A, offset: 0x1E00A, size: 0x8, addend: 0x0, symName: __ZNSt3__122__compressed_pair_elemIPPiLi0ELb0EE5__getB7v160006Ev, symObjAddr: 0xCE4C, symBinAddr: 0x10000DBD0, symSize: 0x14 }
  - { offsetInCU: 0x1E049, offset: 0x1E049, size: 0x8, addend: 0x0, symName: __ZNSt3__16vectorIPiNS_9allocatorIS1_EEE21_ConstructTransactionC1B7v160006ERS4_m, symObjAddr: 0xCE60, symBinAddr: 0x10000DBE4, symSize: 0x3C }
  - { offsetInCU: 0x1E091, offset: 0x1E091, size: 0x8, addend: 0x0, symName: __ZNSt3__116allocator_traitsINS_9allocatorIPiEEE9constructB7v160006IS2_JRKS2_EvEEvRS3_PT_DpOT0_, symObjAddr: 0xCE9C, symBinAddr: 0x10000DC20, symSize: 0x34 }
  - { offsetInCU: 0x1E0E8, offset: 0x1E0E8, size: 0x8, addend: 0x0, symName: __ZNSt3__16vectorIPiNS_9allocatorIS1_EEE21_ConstructTransactionD1B7v160006Ev, symObjAddr: 0xCED0, symBinAddr: 0x10000DC54, symSize: 0x2C }
  - { offsetInCU: 0x1E112, offset: 0x1E112, size: 0x8, addend: 0x0, symName: __ZNSt3__16vectorIPiNS_9allocatorIS1_EEE21_ConstructTransactionC2B7v160006ERS4_m, symObjAddr: 0xCEFC, symBinAddr: 0x10000DC80, symSize: 0x44 }
  - { offsetInCU: 0x1E15A, offset: 0x1E15A, size: 0x8, addend: 0x0, symName: __ZNSt3__19allocatorIPiE9constructB7v160006IS1_JRKS1_EEEvPT_DpOT0_, symObjAddr: 0xCF40, symBinAddr: 0x10000DCC4, symSize: 0x28 }
  - { offsetInCU: 0x1E1B0, offset: 0x1E1B0, size: 0x8, addend: 0x0, symName: __ZNSt3__16vectorIPiNS_9allocatorIS1_EEE21_ConstructTransactionD2B7v160006Ev, symObjAddr: 0xCF68, symBinAddr: 0x10000DCEC, symSize: 0x20 }
  - { offsetInCU: 0x1E1DA, offset: 0x1E1DA, size: 0x8, addend: 0x0, symName: __ZNKSt3__16vectorIPiNS_9allocatorIS1_EEE11__recommendB7v160006Em, symObjAddr: 0xCF88, symBinAddr: 0x10000DD0C, symSize: 0xB4 }
  - { offsetInCU: 0x1E22F, offset: 0x1E22F, size: 0x8, addend: 0x0, symName: __ZNSt3__114__split_bufferIPiRNS_9allocatorIS1_EEEC1EmmS4_, symObjAddr: 0xD03C, symBinAddr: 0x10000DDC0, symSize: 0x44 }
  - { offsetInCU: 0x1E285, offset: 0x1E285, size: 0x8, addend: 0x0, symName: __ZNSt3__114__split_bufferIPiRNS_9allocatorIS1_EEED1Ev, symObjAddr: 0xD198, symBinAddr: 0x10000DF1C, symSize: 0x2C }
  - { offsetInCU: 0x1E2B1, offset: 0x1E2B1, size: 0x8, addend: 0x0, symName: __ZNKSt3__16vectorIPiNS_9allocatorIS1_EEE8max_sizeEv, symObjAddr: 0xD1C4, symBinAddr: 0x10000DF48, symSize: 0x74 }
  - { offsetInCU: 0x1E2D9, offset: 0x1E2D9, size: 0x8, addend: 0x0, symName: __ZNKSt3__16vectorIPiNS_9allocatorIS1_EEE20__throw_length_errorB7v160006Ev, symObjAddr: 0xD238, symBinAddr: 0x10000DFBC, symSize: 0x1C }
  - { offsetInCU: 0x1E309, offset: 0x1E309, size: 0x8, addend: 0x0, symName: __ZNSt3__116allocator_traitsINS_9allocatorIPiEEE8max_sizeB7v160006IS3_vEEmRKS3_, symObjAddr: 0xD280, symBinAddr: 0x10000E004, symSize: 0x24 }
  - { offsetInCU: 0x1E337, offset: 0x1E337, size: 0x8, addend: 0x0, symName: __ZNKSt3__16vectorIPiNS_9allocatorIS1_EEE7__allocB7v160006Ev, symObjAddr: 0xD2A4, symBinAddr: 0x10000E028, symSize: 0x28 }
  - { offsetInCU: 0x1E35D, offset: 0x1E35D, size: 0x8, addend: 0x0, symName: __ZNSt3__114numeric_limitsIlE3maxB7v160006Ev, symObjAddr: 0xD2CC, symBinAddr: 0x10000E050, symSize: 0x14 }
  - { offsetInCU: 0x1E371, offset: 0x1E371, size: 0x8, addend: 0x0, symName: __ZNKSt3__19allocatorIPiE8max_sizeB7v160006Ev, symObjAddr: 0xD334, symBinAddr: 0x10000E0B8, symSize: 0x14 }
  - { offsetInCU: 0x1E397, offset: 0x1E397, size: 0x8, addend: 0x0, symName: __ZNKSt3__117__compressed_pairIPPiNS_9allocatorIS1_EEE6secondB7v160006Ev, symObjAddr: 0xD348, symBinAddr: 0x10000E0CC, symSize: 0x24 }
  - { offsetInCU: 0x1E3BD, offset: 0x1E3BD, size: 0x8, addend: 0x0, symName: __ZNKSt3__122__compressed_pair_elemINS_9allocatorIPiEELi1ELb1EE5__getB7v160006Ev, symObjAddr: 0xD36C, symBinAddr: 0x10000E0F0, symSize: 0x14 }
  - { offsetInCU: 0x1E3E3, offset: 0x1E3E3, size: 0x8, addend: 0x0, symName: __ZNSt3__123__libcpp_numeric_limitsIlLb1EE3maxB7v160006Ev, symObjAddr: 0xD380, symBinAddr: 0x10000E104, symSize: 0x8 }
  - { offsetInCU: 0x1E3F7, offset: 0x1E3F7, size: 0x8, addend: 0x0, symName: __ZNSt12length_errorC1B7v160006EPKc, symObjAddr: 0xD3EC, symBinAddr: 0x10000E170, symSize: 0x34 }
  - { offsetInCU: 0x1E42F, offset: 0x1E42F, size: 0x8, addend: 0x0, symName: __ZNSt12length_errorC2B7v160006EPKc, symObjAddr: 0xD420, symBinAddr: 0x10000E1A4, symSize: 0x4C }
  - { offsetInCU: 0x1E467, offset: 0x1E467, size: 0x8, addend: 0x0, symName: __ZNSt3__114__split_bufferIPiRNS_9allocatorIS1_EEEC2EmmS4_, symObjAddr: 0xD46C, symBinAddr: 0x10000E1F0, symSize: 0xD4 }
  - { offsetInCU: 0x1E4DB, offset: 0x1E4DB, size: 0x8, addend: 0x0, symName: __ZNSt3__117__compressed_pairIPPiRNS_9allocatorIS1_EEEC1B7v160006IDnS5_EEOT_OT0_, symObjAddr: 0xD540, symBinAddr: 0x10000E2C4, symSize: 0x3C }
  - { offsetInCU: 0x1E533, offset: 0x1E533, size: 0x8, addend: 0x0, symName: __ZNSt3__114__split_bufferIPiRNS_9allocatorIS1_EEE7__allocB7v160006Ev, symObjAddr: 0xD5BC, symBinAddr: 0x10000E340, symSize: 0x28 }
  - { offsetInCU: 0x1E559, offset: 0x1E559, size: 0x8, addend: 0x0, symName: __ZNSt3__114__split_bufferIPiRNS_9allocatorIS1_EEE9__end_capB7v160006Ev, symObjAddr: 0xD5E4, symBinAddr: 0x10000E368, symSize: 0x28 }
  - { offsetInCU: 0x1E57F, offset: 0x1E57F, size: 0x8, addend: 0x0, symName: __ZNSt3__117__compressed_pairIPPiRNS_9allocatorIS1_EEEC2B7v160006IDnS5_EEOT_OT0_, symObjAddr: 0xD60C, symBinAddr: 0x10000E390, symSize: 0x48 }
  - { offsetInCU: 0x1E5D7, offset: 0x1E5D7, size: 0x8, addend: 0x0, symName: __ZNSt3__122__compressed_pair_elemIRNS_9allocatorIPiEELi1ELb0EEC2B7v160006IS4_vEEOT_, symObjAddr: 0xD654, symBinAddr: 0x10000E3D8, symSize: 0x20 }
  - { offsetInCU: 0x1E619, offset: 0x1E619, size: 0x8, addend: 0x0, symName: __ZNSt3__19allocatorIPiE8allocateB7v160006Em, symObjAddr: 0xD674, symBinAddr: 0x10000E3F8, symSize: 0x84 }
  - { offsetInCU: 0x1E64D, offset: 0x1E64D, size: 0x8, addend: 0x0, symName: __ZNSt3__117__compressed_pairIPPiRNS_9allocatorIS1_EEE6secondB7v160006Ev, symObjAddr: 0xD6F8, symBinAddr: 0x10000E47C, symSize: 0x28 }
  - { offsetInCU: 0x1E673, offset: 0x1E673, size: 0x8, addend: 0x0, symName: __ZNSt3__122__compressed_pair_elemIRNS_9allocatorIPiEELi1ELb0EE5__getB7v160006Ev, symObjAddr: 0xD720, symBinAddr: 0x10000E4A4, symSize: 0x18 }
  - { offsetInCU: 0x1E699, offset: 0x1E699, size: 0x8, addend: 0x0, symName: __ZNSt3__117__compressed_pairIPPiRNS_9allocatorIS1_EEE5firstB7v160006Ev, symObjAddr: 0xD738, symBinAddr: 0x10000E4BC, symSize: 0x24 }
  - { offsetInCU: 0x1E6BF, offset: 0x1E6BF, size: 0x8, addend: 0x0, symName: __ZNSt3__116reverse_iteratorIPPiEC1B7v160006ES2_, symObjAddr: 0xD844, symBinAddr: 0x10000E5C8, symSize: 0x34 }
  - { offsetInCU: 0x1E6F7, offset: 0x1E6F7, size: 0x8, addend: 0x0, symName: __ZNKSt3__116reverse_iteratorIPPiE4baseB7v160006Ev, symObjAddr: 0xD878, symBinAddr: 0x10000E5FC, symSize: 0x18 }
  - { offsetInCU: 0x1E71D, offset: 0x1E71D, size: 0x8, addend: 0x0, symName: __ZNKSt3__16vectorIPiNS_9allocatorIS1_EEE14__annotate_newB7v160006Em, symObjAddr: 0xD8CC, symBinAddr: 0x10000E650, symSize: 0xAC }
  - { offsetInCU: 0x1E752, offset: 0x1E752, size: 0x8, addend: 0x0, symName: __ZNKSt3__116reverse_iteratorIPPiEdeB7v160006Ev, symObjAddr: 0xDA20, symBinAddr: 0x10000E7A4, symSize: 0x28 }
  - { offsetInCU: 0x1E786, offset: 0x1E786, size: 0x8, addend: 0x0, symName: __ZNSt3__116reverse_iteratorIPPiEppB7v160006Ev, symObjAddr: 0xDA48, symBinAddr: 0x10000E7CC, symSize: 0x20 }
  - { offsetInCU: 0x1E7B1, offset: 0x1E7B1, size: 0x8, addend: 0x0, symName: __ZNSt3__119__to_address_helperINS_16reverse_iteratorIPPiEEvE6__callB7v160006ERKS4_, symObjAddr: 0xDAE0, symBinAddr: 0x10000E864, symSize: 0x4C }
  - { offsetInCU: 0x1E7D4, offset: 0x1E7D4, size: 0x8, addend: 0x0, symName: __ZNKSt3__116reverse_iteratorIPPiEptB7v160006Ev, symObjAddr: 0xDB2C, symBinAddr: 0x10000E8B0, symSize: 0x24 }
  - { offsetInCU: 0x1E81E, offset: 0x1E81E, size: 0x8, addend: 0x0, symName: __ZNKSt3__111__move_loopINS_17_ClassicAlgPolicyEEclB7v160006INS_16reverse_iteratorIPPiEES7_S7_EENS_4pairIT_T1_EES9_T0_SA_, symObjAddr: 0xDDE0, symBinAddr: 0x10000EB64, symSize: 0xA0 }
  - { offsetInCU: 0x1E88F, offset: 0x1E88F, size: 0x8, addend: 0x0, symName: __ZNSt3__18_IterOpsINS_17_ClassicAlgPolicyEE11__iter_moveB7v160006IRNS_16reverse_iteratorIPPiEEEENS_9enable_ifIXsr12is_referenceIDTdeclsr3stdE7declvalIRT_EEEEE5valueEDTclsr3stdE4movedeclsr3stdE7declvalISB_EEEEE4typeEOSA_, symObjAddr: 0xDFE0, symBinAddr: 0x10000ED64, symSize: 0x28 }
  - { offsetInCU: 0x1E8BB, offset: 0x1E8BB, size: 0x8, addend: 0x0, symName: __ZNSt3__18_IterOpsINS_17_ClassicAlgPolicyEE25__validate_iter_referenceB7v160006IRNS_16reverse_iteratorIPPiEEEEvv, symObjAddr: 0xE008, symBinAddr: 0x10000ED8C, symSize: 0x4 }
  - { offsetInCU: 0x1E8D9, offset: 0x1E8D9, size: 0x8, addend: 0x0, symName: __ZNSt3__118__unwrap_iter_implINS_16reverse_iteratorIPPiEELb0EE8__unwrapB7v160006ES4_, symObjAddr: 0xE00C, symBinAddr: 0x10000ED90, symSize: 0x24 }
  - { offsetInCU: 0x1E8FC, offset: 0x1E8FC, size: 0x8, addend: 0x0, symName: __ZNSt3__14pairINS_16reverse_iteratorIPPiEES4_EC1B7v160006ERKS4_S7_, symObjAddr: 0xE030, symBinAddr: 0x10000EDB4, symSize: 0x3C }
  - { offsetInCU: 0x1E942, offset: 0x1E942, size: 0x8, addend: 0x0, symName: __ZNSt3__14pairINS_16reverse_iteratorIPPiEES4_EC2B7v160006ERKS4_S7_, symObjAddr: 0xE06C, symBinAddr: 0x10000EDF0, symSize: 0x34 }
  - { offsetInCU: 0x1E988, offset: 0x1E988, size: 0x8, addend: 0x0, symName: __ZNSt3__118__unwrap_iter_implINS_16reverse_iteratorIPPiEELb0EE8__rewrapB7v160006ES4_S4_, symObjAddr: 0xE0A0, symBinAddr: 0x10000EE24, symSize: 0x2C }
  - { offsetInCU: 0x1E9B5, offset: 0x1E9B5, size: 0x8, addend: 0x0, symName: __ZNSt3__116reverse_iteratorIPPiEC2B7v160006ES2_, symObjAddr: 0xE0CC, symBinAddr: 0x10000EE50, symSize: 0x28 }
  - { offsetInCU: 0x1E9ED, offset: 0x1E9ED, size: 0x8, addend: 0x0, symName: __ZNSt3__114__split_bufferIPiRNS_9allocatorIS1_EEED2Ev, symObjAddr: 0xE0F4, symBinAddr: 0x10000EE78, symSize: 0x80 }
  - { offsetInCU: 0x1EA19, offset: 0x1EA19, size: 0x8, addend: 0x0, symName: __ZNSt3__114__split_bufferIPiRNS_9allocatorIS1_EEE5clearB7v160006Ev, symObjAddr: 0xE174, symBinAddr: 0x10000EEF8, symSize: 0x28 }
  - { offsetInCU: 0x1EA3F, offset: 0x1EA3F, size: 0x8, addend: 0x0, symName: __ZNKSt3__114__split_bufferIPiRNS_9allocatorIS1_EEE8capacityB7v160006Ev, symObjAddr: 0xE19C, symBinAddr: 0x10000EF20, symSize: 0x40 }
  - { offsetInCU: 0x1EA65, offset: 0x1EA65, size: 0x8, addend: 0x0, symName: __ZNSt3__114__split_bufferIPiRNS_9allocatorIS1_EEE17__destruct_at_endB7v160006EPS1_, symObjAddr: 0xE1DC, symBinAddr: 0x10000EF60, symSize: 0x2C }
  - { offsetInCU: 0x1EA99, offset: 0x1EA99, size: 0x8, addend: 0x0, symName: __ZNSt3__114__split_bufferIPiRNS_9allocatorIS1_EEE17__destruct_at_endB7v160006EPS1_NS_17integral_constantIbLb0EEE, symObjAddr: 0xE208, symBinAddr: 0x10000EF8C, symSize: 0x94 }
  - { offsetInCU: 0x1EAD9, offset: 0x1EAD9, size: 0x8, addend: 0x0, symName: __ZNKSt3__114__split_bufferIPiRNS_9allocatorIS1_EEE9__end_capB7v160006Ev, symObjAddr: 0xE29C, symBinAddr: 0x10000F020, symSize: 0x28 }
  - { offsetInCU: 0x1EAFF, offset: 0x1EAFF, size: 0x8, addend: 0x0, symName: __ZNKSt3__117__compressed_pairIPPiRNS_9allocatorIS1_EEE5firstB7v160006Ev, symObjAddr: 0xE2C4, symBinAddr: 0x10000F048, symSize: 0x24 }
  - { offsetInCU: 0x1EB25, offset: 0x1EB25, size: 0x8, addend: 0x0, symName: __ZNKSt3__119__hash_map_iteratorINS_15__hash_iteratorIPNS_11__hash_nodeINS_17__hash_value_typeIiNS_6vectorIPiNS_9allocatorIS5_EEEEEEPvEEEEEptB7v160006Ev, symObjAddr: 0xE2E8, symBinAddr: 0x10000F06C, symSize: 0x2C }
  - { offsetInCU: 0x1EB4B, offset: 0x1EB4B, size: 0x8, addend: 0x0, symName: __ZNSt3__113unordered_mapIiNS_6vectorIPiNS_9allocatorIS2_EEEENS_4hashIiEENS_8equal_toIiEENS3_INS_4pairIKiS5_EEEEE25__construct_node_with_keyERSB_, symObjAddr: 0xE314, symBinAddr: 0x10000F098, symSize: 0x144 }
  - { offsetInCU: 0x1EBA1, offset: 0x1EBA1, size: 0x8, addend: 0x0, symName: __ZNSt3__112__hash_tableINS_17__hash_value_typeIiNS_6vectorIPiNS_9allocatorIS3_EEEEEENS_22__unordered_map_hasherIiS7_NS_4hashIiEENS_8equal_toIiEELb1EEENS_21__unordered_map_equalIiS7_SC_SA_Lb1EEENS4_IS7_EEE20__node_insert_uniqueEPNS_11__hash_nodeIS7_PvEE, symObjAddr: 0xE458, symBinAddr: 0x10000F1DC, symSize: 0xC8 }
  - { offsetInCU: 0x1EBF6, offset: 0x1EBF6, size: 0x8, addend: 0x0, symName: __ZNKSt3__110unique_ptrINS_11__hash_nodeINS_17__hash_value_typeIiNS_6vectorIPiNS_9allocatorIS4_EEEEEEPvEENS_26__hash_map_node_destructorINS5_ISA_EEEEE3getB7v160006Ev, symObjAddr: 0xE520, symBinAddr: 0x10000F2A4, symSize: 0x28 }
  - { offsetInCU: 0x1EC1C, offset: 0x1EC1C, size: 0x8, addend: 0x0, symName: __ZNSt3__14pairINS_19__hash_map_iteratorINS_15__hash_iteratorIPNS_11__hash_nodeINS_17__hash_value_typeIiNS_6vectorIPiNS_9allocatorIS6_EEEEEEPvEEEEEEbEC1B7v160006ISE_bEERKNS0_IT_T0_EE, symObjAddr: 0xE548, symBinAddr: 0x10000F2CC, symSize: 0x34 }
  - { offsetInCU: 0x1EC66, offset: 0x1EC66, size: 0x8, addend: 0x0, symName: __ZNSt3__110unique_ptrINS_11__hash_nodeINS_17__hash_value_typeIiNS_6vectorIPiNS_9allocatorIS4_EEEEEEPvEENS_26__hash_map_node_destructorINS5_ISA_EEEEE7releaseB7v160006Ev, symObjAddr: 0xE57C, symBinAddr: 0x10000F300, symSize: 0x44 }
  - { offsetInCU: 0x1EC9B, offset: 0x1EC9B, size: 0x8, addend: 0x0, symName: __ZNSt3__110unique_ptrINS_11__hash_nodeINS_17__hash_value_typeIiNS_6vectorIPiNS_9allocatorIS4_EEEEEEPvEENS_26__hash_map_node_destructorINS5_ISA_EEEEED1B7v160006Ev, symObjAddr: 0xE5C0, symBinAddr: 0x10000F344, symSize: 0x2C }
  - { offsetInCU: 0x1ECC5, offset: 0x1ECC5, size: 0x8, addend: 0x0, symName: __ZNSt3__114pointer_traitsIPNS_4pairIKiNS_6vectorIPiNS_9allocatorIS4_EEEEEEE10pointer_toB7v160006ERS8_, symObjAddr: 0xE5EC, symBinAddr: 0x10000F370, symSize: 0x14 }
  - { offsetInCU: 0x1ECE8, offset: 0x1ECE8, size: 0x8, addend: 0x0, symName: __ZNKSt3__115__hash_iteratorIPNS_11__hash_nodeINS_17__hash_value_typeIiNS_6vectorIPiNS_9allocatorIS4_EEEEEEPvEEEptB7v160006Ev, symObjAddr: 0xE600, symBinAddr: 0x10000F384, symSize: 0x30 }
  - { offsetInCU: 0x1ED0E, offset: 0x1ED0E, size: 0x8, addend: 0x0, symName: __ZNSt3__114pointer_traitsIPNS_17__hash_value_typeIiNS_6vectorIPiNS_9allocatorIS3_EEEEEEE10pointer_toB7v160006ERS7_, symObjAddr: 0xE630, symBinAddr: 0x10000F3B4, symSize: 0x14 }
  - { offsetInCU: 0x1ED31, offset: 0x1ED31, size: 0x8, addend: 0x0, symName: __ZNSt3__116allocator_traitsINS_9allocatorINS_11__hash_nodeINS_17__hash_value_typeIiNS_6vectorIPiNS1_IS5_EEEEEEPvEEEEE8allocateB7v160006ERSB_m, symObjAddr: 0xE644, symBinAddr: 0x10000F3C8, symSize: 0x2C }
  - { offsetInCU: 0x1ED64, offset: 0x1ED64, size: 0x8, addend: 0x0, symName: __ZNSt3__126__hash_map_node_destructorINS_9allocatorINS_11__hash_nodeINS_17__hash_value_typeIiNS_6vectorIPiNS1_IS5_EEEEEEPvEEEEEC1B7v160006ERSB_, symObjAddr: 0xE670, symBinAddr: 0x10000F3F4, symSize: 0x34 }
  - { offsetInCU: 0x1EDA3, offset: 0x1EDA3, size: 0x8, addend: 0x0, symName: __ZNSt3__110unique_ptrINS_11__hash_nodeINS_17__hash_value_typeIiNS_6vectorIPiNS_9allocatorIS4_EEEEEEPvEENS_26__hash_map_node_destructorINS5_ISA_EEEEEC1B7v160006ILb1EvEEPSA_NS_16__dependent_typeINS_27__unique_ptr_deleter_sfinaeISD_EEXT_EE20__good_rval_ref_typeE, symObjAddr: 0xE6A4, symBinAddr: 0x10000F428, symSize: 0x3C }
  - { offsetInCU: 0x1EDF9, offset: 0x1EDF9, size: 0x8, addend: 0x0, symName: __ZNSt3__116allocator_traitsINS_9allocatorINS_11__hash_nodeINS_17__hash_value_typeIiNS_6vectorIPiNS1_IS5_EEEEEEPvEEEEE9constructB7v160006IKiJRSE_EvEEvRSB_PT_DpOT0_, symObjAddr: 0xE6E0, symBinAddr: 0x10000F464, symSize: 0x34 }
  - { offsetInCU: 0x1EE50, offset: 0x1EE50, size: 0x8, addend: 0x0, symName: __ZNKSt3__110unique_ptrINS_11__hash_nodeINS_17__hash_value_typeIiNS_6vectorIPiNS_9allocatorIS4_EEEEEEPvEENS_26__hash_map_node_destructorINS5_ISA_EEEEEptB7v160006Ev, symObjAddr: 0xE714, symBinAddr: 0x10000F498, symSize: 0x28 }
  - { offsetInCU: 0x1EE76, offset: 0x1EE76, size: 0x8, addend: 0x0, symName: __ZNSt3__110unique_ptrINS_11__hash_nodeINS_17__hash_value_typeIiNS_6vectorIPiNS_9allocatorIS4_EEEEEEPvEENS_26__hash_map_node_destructorINS5_ISA_EEEEE11get_deleterB7v160006Ev, symObjAddr: 0xE73C, symBinAddr: 0x10000F4C0, symSize: 0x24 }
  - { offsetInCU: 0x1EEA1, offset: 0x1EEA1, size: 0x8, addend: 0x0, symName: __ZNSt3__116allocator_traitsINS_9allocatorINS_11__hash_nodeINS_17__hash_value_typeIiNS_6vectorIPiNS1_IS5_EEEEEEPvEEEEE9constructB7v160006IS7_JEvEEvRSB_PT_DpOT0_, symObjAddr: 0xE760, symBinAddr: 0x10000F4E4, symSize: 0x2C }
  - { offsetInCU: 0x1EEE3, offset: 0x1EEE3, size: 0x8, addend: 0x0, symName: __ZNSt3__19allocatorINS_11__hash_nodeINS_17__hash_value_typeIiNS_6vectorIPiNS0_IS4_EEEEEEPvEEE8allocateB7v160006Em, symObjAddr: 0xE78C, symBinAddr: 0x10000F510, symSize: 0x8C }
  - { offsetInCU: 0x1EF21, offset: 0x1EF21, size: 0x8, addend: 0x0, symName: __ZNSt3__116allocator_traitsINS_9allocatorINS_11__hash_nodeINS_17__hash_value_typeIiNS_6vectorIPiNS1_IS5_EEEEEEPvEEEEE8max_sizeB7v160006ISB_vEEmRKSB_, symObjAddr: 0xE818, symBinAddr: 0x10000F59C, symSize: 0x24 }
  - { offsetInCU: 0x1EF4F, offset: 0x1EF4F, size: 0x8, addend: 0x0, symName: __ZNKSt3__19allocatorINS_11__hash_nodeINS_17__hash_value_typeIiNS_6vectorIPiNS0_IS4_EEEEEEPvEEE8max_sizeB7v160006Ev, symObjAddr: 0xE83C, symBinAddr: 0x10000F5C0, symSize: 0x18 }
  - { offsetInCU: 0x1EF75, offset: 0x1EF75, size: 0x8, addend: 0x0, symName: __ZNSt3__126__hash_map_node_destructorINS_9allocatorINS_11__hash_nodeINS_17__hash_value_typeIiNS_6vectorIPiNS1_IS5_EEEEEEPvEEEEEC2B7v160006ERSB_, symObjAddr: 0xE854, symBinAddr: 0x10000F5D8, symSize: 0x28 }
  - { offsetInCU: 0x1EFAE, offset: 0x1EFAE, size: 0x8, addend: 0x0, symName: __ZNSt3__110unique_ptrINS_11__hash_nodeINS_17__hash_value_typeIiNS_6vectorIPiNS_9allocatorIS4_EEEEEEPvEENS_26__hash_map_node_destructorINS5_ISA_EEEEEC2B7v160006ILb1EvEEPSA_NS_16__dependent_typeINS_27__unique_ptr_deleter_sfinaeISD_EEXT_EE20__good_rval_ref_typeE, symObjAddr: 0xE87C, symBinAddr: 0x10000F600, symSize: 0x5C }
  - { offsetInCU: 0x1EFFF, offset: 0x1EFFF, size: 0x8, addend: 0x0, symName: __ZNSt3__117__compressed_pairIPNS_11__hash_nodeINS_17__hash_value_typeIiNS_6vectorIPiNS_9allocatorIS4_EEEEEEPvEENS_26__hash_map_node_destructorINS5_ISA_EEEEEC1B7v160006IRSB_SE_EEOT_OT0_, symObjAddr: 0xE8D8, symBinAddr: 0x10000F65C, symSize: 0x3C }
  - { offsetInCU: 0x1F057, offset: 0x1F057, size: 0x8, addend: 0x0, symName: __ZNSt3__117__compressed_pairIPNS_11__hash_nodeINS_17__hash_value_typeIiNS_6vectorIPiNS_9allocatorIS4_EEEEEEPvEENS_26__hash_map_node_destructorINS5_ISA_EEEEEC2B7v160006IRSB_SE_EEOT_OT0_, symObjAddr: 0xE914, symBinAddr: 0x10000F698, symSize: 0x48 }
  - { offsetInCU: 0x1F0AF, offset: 0x1F0AF, size: 0x8, addend: 0x0, symName: __ZNSt3__122__compressed_pair_elemIPNS_11__hash_nodeINS_17__hash_value_typeIiNS_6vectorIPiNS_9allocatorIS4_EEEEEEPvEELi0ELb0EEC2B7v160006IRSB_vEEOT_, symObjAddr: 0xE95C, symBinAddr: 0x10000F6E0, symSize: 0x24 }
  - { offsetInCU: 0x1F0F1, offset: 0x1F0F1, size: 0x8, addend: 0x0, symName: __ZNSt3__122__compressed_pair_elemINS_26__hash_map_node_destructorINS_9allocatorINS_11__hash_nodeINS_17__hash_value_typeIiNS_6vectorIPiNS2_IS6_EEEEEEPvEEEEEELi1ELb0EEC2B7v160006ISD_vEEOT_, symObjAddr: 0xE980, symBinAddr: 0x10000F704, symSize: 0x24 }
  - { offsetInCU: 0x1F133, offset: 0x1F133, size: 0x8, addend: 0x0, symName: __ZNSt3__19allocatorINS_11__hash_nodeINS_17__hash_value_typeIiNS_6vectorIPiNS0_IS4_EEEEEEPvEEE9constructB7v160006IKiJRSC_EEEvPT_DpOT0_, symObjAddr: 0xE9A4, symBinAddr: 0x10000F728, symSize: 0x28 }
  - { offsetInCU: 0x1F189, offset: 0x1F189, size: 0x8, addend: 0x0, symName: __ZNKSt3__117__compressed_pairIPNS_11__hash_nodeINS_17__hash_value_typeIiNS_6vectorIPiNS_9allocatorIS4_EEEEEEPvEENS_26__hash_map_node_destructorINS5_ISA_EEEEE5firstB7v160006Ev, symObjAddr: 0xE9CC, symBinAddr: 0x10000F750, symSize: 0x24 }
  - { offsetInCU: 0x1F1AF, offset: 0x1F1AF, size: 0x8, addend: 0x0, symName: __ZNKSt3__122__compressed_pair_elemIPNS_11__hash_nodeINS_17__hash_value_typeIiNS_6vectorIPiNS_9allocatorIS4_EEEEEEPvEELi0ELb0EE5__getB7v160006Ev, symObjAddr: 0xE9F0, symBinAddr: 0x10000F774, symSize: 0x14 }
  - { offsetInCU: 0x1F1D5, offset: 0x1F1D5, size: 0x8, addend: 0x0, symName: __ZNSt3__117__compressed_pairIPNS_11__hash_nodeINS_17__hash_value_typeIiNS_6vectorIPiNS_9allocatorIS4_EEEEEEPvEENS_26__hash_map_node_destructorINS5_ISA_EEEEE6secondB7v160006Ev, symObjAddr: 0xEA04, symBinAddr: 0x10000F788, symSize: 0x28 }
  - { offsetInCU: 0x1F1FB, offset: 0x1F1FB, size: 0x8, addend: 0x0, symName: __ZNSt3__122__compressed_pair_elemINS_26__hash_map_node_destructorINS_9allocatorINS_11__hash_nodeINS_17__hash_value_typeIiNS_6vectorIPiNS2_IS6_EEEEEEPvEEEEEELi1ELb0EE5__getB7v160006Ev, symObjAddr: 0xEA2C, symBinAddr: 0x10000F7B0, symSize: 0x14 }
  - { offsetInCU: 0x1F221, offset: 0x1F221, size: 0x8, addend: 0x0, symName: __ZNSt3__19allocatorINS_11__hash_nodeINS_17__hash_value_typeIiNS_6vectorIPiNS0_IS4_EEEEEEPvEEE9constructB7v160006IS6_JEEEvPT_DpOT0_, symObjAddr: 0xEA40, symBinAddr: 0x10000F7C4, symSize: 0x28 }
  - { offsetInCU: 0x1F263, offset: 0x1F263, size: 0x8, addend: 0x0, symName: __ZNKSt3__122__unordered_map_hasherIiNS_17__hash_value_typeIiNS_6vectorIPiNS_9allocatorIS3_EEEEEENS_4hashIiEENS_8equal_toIiEELb1EEclB7v160006ERKS7_, symObjAddr: 0xEA68, symBinAddr: 0x10000F7EC, symSize: 0x40 }
  - { offsetInCU: 0x1F298, offset: 0x1F298, size: 0x8, addend: 0x0, symName: __ZNSt3__112__hash_tableINS_17__hash_value_typeIiNS_6vectorIPiNS_9allocatorIS3_EEEEEENS_22__unordered_map_hasherIiS7_NS_4hashIiEENS_8equal_toIiEELb1EEENS_21__unordered_map_equalIiS7_SC_SA_Lb1EEENS4_IS7_EEE28__node_insert_unique_prepareB7v160006EmRS7_, symObjAddr: 0xEAA8, symBinAddr: 0x10000F82C, symSize: 0x244 }
  - { offsetInCU: 0x1F31A, offset: 0x1F31A, size: 0x8, addend: 0x0, symName: __ZNSt3__112__hash_tableINS_17__hash_value_typeIiNS_6vectorIPiNS_9allocatorIS3_EEEEEENS_22__unordered_map_hasherIiS7_NS_4hashIiEENS_8equal_toIiEELb1EEENS_21__unordered_map_equalIiS7_SC_SA_Lb1EEENS4_IS7_EEE28__node_insert_unique_performB7v160006EPNS_11__hash_nodeIS7_PvEE, symObjAddr: 0xECEC, symBinAddr: 0x10000FA70, symSize: 0x154 }
  - { offsetInCU: 0x1F37E, offset: 0x1F37E, size: 0x8, addend: 0x0, symName: __ZNSt3__116__hash_node_baseIPNS_11__hash_nodeINS_17__hash_value_typeIiNS_6vectorIPiNS_9allocatorIS4_EEEEEEPvEEE5__ptrB7v160006Ev, symObjAddr: 0xEE40, symBinAddr: 0x10000FBC4, symSize: 0x24 }
  - { offsetInCU: 0x1F3A4, offset: 0x1F3A4, size: 0x8, addend: 0x0, symName: __ZNSt3__14pairINS_15__hash_iteratorIPNS_11__hash_nodeINS_17__hash_value_typeIiNS_6vectorIPiNS_9allocatorIS5_EEEEEEPvEEEEbEC1B7v160006ERKSD_RKb, symObjAddr: 0xEE64, symBinAddr: 0x10000FBE8, symSize: 0x3C }
  - { offsetInCU: 0x1F3EA, offset: 0x1F3EA, size: 0x8, addend: 0x0, symName: __ZNKSt3__121__unordered_map_equalIiNS_17__hash_value_typeIiNS_6vectorIPiNS_9allocatorIS3_EEEEEENS_8equal_toIiEENS_4hashIiEELb1EEclB7v160006ERKS7_SE_, symObjAddr: 0xEEA0, symBinAddr: 0x10000FC24, symSize: 0x54 }
  - { offsetInCU: 0x1F42E, offset: 0x1F42E, size: 0x8, addend: 0x0, symName: __ZNSt3__112__hash_tableINS_17__hash_value_typeIiNS_6vectorIPiNS_9allocatorIS3_EEEEEENS_22__unordered_map_hasherIiS7_NS_4hashIiEENS_8equal_toIiEELb1EEENS_21__unordered_map_equalIiS7_SC_SA_Lb1EEENS4_IS7_EEE4sizeB7v160006Ev, symObjAddr: 0xEEF4, symBinAddr: 0x10000FC78, symSize: 0x28 }
  - { offsetInCU: 0x1F454, offset: 0x1F454, size: 0x8, addend: 0x0, symName: __ZNSt3__112__hash_tableINS_17__hash_value_typeIiNS_6vectorIPiNS_9allocatorIS3_EEEEEENS_22__unordered_map_hasherIiS7_NS_4hashIiEENS_8equal_toIiEELb1EEENS_21__unordered_map_equalIiS7_SC_SA_Lb1EEENS4_IS7_EEE15max_load_factorB7v160006Ev, symObjAddr: 0xEF1C, symBinAddr: 0x10000FCA0, symSize: 0x28 }
  - { offsetInCU: 0x1F47A, offset: 0x1F47A, size: 0x8, addend: 0x0, symName: __ZNSt3__112__hash_tableINS_17__hash_value_typeIiNS_6vectorIPiNS_9allocatorIS3_EEEEEENS_22__unordered_map_hasherIiS7_NS_4hashIiEENS_8equal_toIiEELb1EEENS_21__unordered_map_equalIiS7_SC_SA_Lb1EEENS4_IS7_EEE15__rehash_uniqueB7v160006Em, symObjAddr: 0xEF44, symBinAddr: 0x10000FCC8, symSize: 0x2C }
  - { offsetInCU: 0x1F4AF, offset: 0x1F4AF, size: 0x8, addend: 0x0, symName: __ZNSt3__117__compressed_pairImNS_22__unordered_map_hasherIiNS_17__hash_value_typeIiNS_6vectorIPiNS_9allocatorIS4_EEEEEENS_4hashIiEENS_8equal_toIiEELb1EEEE5firstB7v160006Ev, symObjAddr: 0xEF70, symBinAddr: 0x10000FCF4, symSize: 0x24 }
  - { offsetInCU: 0x1F4D5, offset: 0x1F4D5, size: 0x8, addend: 0x0, symName: __ZNSt3__117__compressed_pairIfNS_21__unordered_map_equalIiNS_17__hash_value_typeIiNS_6vectorIPiNS_9allocatorIS4_EEEEEENS_8equal_toIiEENS_4hashIiEELb1EEEE5firstB7v160006Ev, symObjAddr: 0xEF94, symBinAddr: 0x10000FD18, symSize: 0x24 }
  - { offsetInCU: 0x1F4FB, offset: 0x1F4FB, size: 0x8, addend: 0x0, symName: __ZNSt3__112__hash_tableINS_17__hash_value_typeIiNS_6vectorIPiNS_9allocatorIS3_EEEEEENS_22__unordered_map_hasherIiS7_NS_4hashIiEENS_8equal_toIiEELb1EEENS_21__unordered_map_equalIiS7_SC_SA_Lb1EEENS4_IS7_EEE8__rehashILb1EEEvm, symObjAddr: 0xEFB8, symBinAddr: 0x10000FD3C, symSize: 0x1A8 }
  - { offsetInCU: 0x1F54B, offset: 0x1F54B, size: 0x8, addend: 0x0, symName: __ZNSt3__112__hash_tableINS_17__hash_value_typeIiNS_6vectorIPiNS_9allocatorIS3_EEEEEENS_22__unordered_map_hasherIiS7_NS_4hashIiEENS_8equal_toIiEELb1EEENS_21__unordered_map_equalIiS7_SC_SA_Lb1EEENS4_IS7_EEE11__do_rehashILb1EEEvm, symObjAddr: 0xF160, symBinAddr: 0x10000FEE4, symSize: 0x290 }
  - { offsetInCU: 0x1F632, offset: 0x1F632, size: 0x8, addend: 0x0, symName: __ZNSt3__110unique_ptrIA_PNS_16__hash_node_baseIPNS_11__hash_nodeINS_17__hash_value_typeIiNS_6vectorIPiNS_9allocatorIS5_EEEEEEPvEEEENS_25__bucket_list_deallocatorINS6_ISE_EEEEE11get_deleterB7v160006Ev, symObjAddr: 0xF400, symBinAddr: 0x100010184, symSize: 0x24 }
  - { offsetInCU: 0x1F658, offset: 0x1F658, size: 0x8, addend: 0x0, symName: __ZNSt3__110unique_ptrIA_PNS_16__hash_node_baseIPNS_11__hash_nodeINS_17__hash_value_typeIiNS_6vectorIPiNS_9allocatorIS5_EEEEEEPvEEEENS_25__bucket_list_deallocatorINS6_ISE_EEEEE5resetB7v160006IPSE_EENS_9enable_ifIXsr28_CheckArrayPointerConversionIT_EE5valueEvE4typeESN_, symObjAddr: 0xF424, symBinAddr: 0x1000101A8, symSize: 0x78 }
  - { offsetInCU: 0x1F6A5, offset: 0x1F6A5, size: 0x8, addend: 0x0, symName: __ZNSt3__116allocator_traitsINS_9allocatorIPNS_16__hash_node_baseIPNS_11__hash_nodeINS_17__hash_value_typeIiNS_6vectorIPiNS1_IS6_EEEEEEPvEEEEEEE8allocateB7v160006ERSF_m, symObjAddr: 0xF49C, symBinAddr: 0x100010220, symSize: 0x2C }
  - { offsetInCU: 0x1F6D8, offset: 0x1F6D8, size: 0x8, addend: 0x0, symName: __ZNSt3__19allocatorIPNS_16__hash_node_baseIPNS_11__hash_nodeINS_17__hash_value_typeIiNS_6vectorIPiNS0_IS5_EEEEEEPvEEEEE8allocateB7v160006Em, symObjAddr: 0xF4C8, symBinAddr: 0x10001024C, symSize: 0x84 }
  - { offsetInCU: 0x1F716, offset: 0x1F716, size: 0x8, addend: 0x0, symName: __ZNSt3__116allocator_traitsINS_9allocatorIPNS_16__hash_node_baseIPNS_11__hash_nodeINS_17__hash_value_typeIiNS_6vectorIPiNS1_IS6_EEEEEEPvEEEEEEE8max_sizeB7v160006ISF_vEEmRKSF_, symObjAddr: 0xF54C, symBinAddr: 0x1000102D0, symSize: 0x24 }
  - { offsetInCU: 0x1F744, offset: 0x1F744, size: 0x8, addend: 0x0, symName: __ZNKSt3__19allocatorIPNS_16__hash_node_baseIPNS_11__hash_nodeINS_17__hash_value_typeIiNS_6vectorIPiNS0_IS5_EEEEEEPvEEEEE8max_sizeB7v160006Ev, symObjAddr: 0xF570, symBinAddr: 0x1000102F4, symSize: 0x14 }
  - { offsetInCU: 0x1F76A, offset: 0x1F76A, size: 0x8, addend: 0x0, symName: __ZNSt3__14pairINS_15__hash_iteratorIPNS_11__hash_nodeINS_17__hash_value_typeIiNS_6vectorIPiNS_9allocatorIS5_EEEEEEPvEEEEbEC2B7v160006ERKSD_RKb, symObjAddr: 0xF584, symBinAddr: 0x100010308, symSize: 0x38 }
  - { offsetInCU: 0x1F7B0, offset: 0x1F7B0, size: 0x8, addend: 0x0, symName: __ZNSt3__14pairINS_19__hash_map_iteratorINS_15__hash_iteratorIPNS_11__hash_nodeINS_17__hash_value_typeIiNS_6vectorIPiNS_9allocatorIS6_EEEEEEPvEEEEEEbEC2B7v160006ISE_bEERKNS0_IT_T0_EE, symObjAddr: 0xF5BC, symBinAddr: 0x100010340, symSize: 0x50 }
  - { offsetInCU: 0x1F7FA, offset: 0x1F7FA, size: 0x8, addend: 0x0, symName: __ZNSt3__117__compressed_pairIPNS_11__hash_nodeINS_17__hash_value_typeIiNS_6vectorIPiNS_9allocatorIS4_EEEEEEPvEENS_26__hash_map_node_destructorINS5_ISA_EEEEE5firstB7v160006Ev, symObjAddr: 0xF60C, symBinAddr: 0x100010390, symSize: 0x24 }
  - { offsetInCU: 0x1F820, offset: 0x1F820, size: 0x8, addend: 0x0, symName: __ZNSt3__122__compressed_pair_elemIPNS_11__hash_nodeINS_17__hash_value_typeIiNS_6vectorIPiNS_9allocatorIS4_EEEEEEPvEELi0ELb0EE5__getB7v160006Ev, symObjAddr: 0xF630, symBinAddr: 0x1000103B4, symSize: 0x14 }
  - { offsetInCU: 0x1F846, offset: 0x1F846, size: 0x8, addend: 0x0, symName: __ZNSt3__110unique_ptrINS_11__hash_nodeINS_17__hash_value_typeIiNS_6vectorIPiNS_9allocatorIS4_EEEEEEPvEENS_26__hash_map_node_destructorINS5_ISA_EEEEED2B7v160006Ev, symObjAddr: 0xF644, symBinAddr: 0x1000103C8, symSize: 0x30 }
  - { offsetInCU: 0x1F870, offset: 0x1F870, size: 0x8, addend: 0x0, symName: __ZNSt3__110unique_ptrINS_11__hash_nodeINS_17__hash_value_typeIiNS_6vectorIPiNS_9allocatorIS4_EEEEEEPvEENS_26__hash_map_node_destructorINS5_ISA_EEEEE5resetB7v160006EPSA_, symObjAddr: 0xF674, symBinAddr: 0x1000103F8, symSize: 0x78 }
  - { offsetInCU: 0x1F8B4, offset: 0x1F8B4, size: 0x8, addend: 0x0, symName: __ZNSt3__126__hash_map_node_destructorINS_9allocatorINS_11__hash_nodeINS_17__hash_value_typeIiNS_6vectorIPiNS1_IS5_EEEEEEPvEEEEEclB7v160006EPSA_, symObjAddr: 0xF6EC, symBinAddr: 0x100010470, symSize: 0xE4 }
  - { offsetInCU: 0x1F8E9, offset: 0x1F8E9, size: 0x8, addend: 0x0, symName: __ZNSt3__116allocator_traitsINS_9allocatorINS_11__hash_nodeINS_17__hash_value_typeIiNS_6vectorIPiNS1_IS5_EEEEEEPvEEEEE7destroyB7v160006IS7_vvEEvRSB_PT_, symObjAddr: 0xF7D0, symBinAddr: 0x100010554, symSize: 0x28 }
  - { offsetInCU: 0x1F923, offset: 0x1F923, size: 0x8, addend: 0x0, symName: __ZNSt3__116allocator_traitsINS_9allocatorINS_11__hash_nodeINS_17__hash_value_typeIiNS_6vectorIPiNS1_IS5_EEEEEEPvEEEEE7destroyB7v160006IKivvEEvRSB_PT_, symObjAddr: 0xF7F8, symBinAddr: 0x10001057C, symSize: 0x14 }
  - { offsetInCU: 0x1F95D, offset: 0x1F95D, size: 0x8, addend: 0x0, symName: __ZNSt3__16vectorIPiNS_9allocatorIS1_EEE19__copy_assign_allocB7v160006ERKS4_, symObjAddr: 0xF80C, symBinAddr: 0x100010590, symSize: 0x2C }
  - { offsetInCU: 0x1F992, offset: 0x1F992, size: 0x8, addend: 0x0, symName: __ZNSt3__16vectorIPiNS_9allocatorIS1_EEE6assignIPS1_Li0EEEvT_S7_, symObjAddr: 0xF838, symBinAddr: 0x1000105BC, symSize: 0x17C }
  - { offsetInCU: 0x1FA32, offset: 0x1FA32, size: 0x8, addend: 0x0, symName: __ZNSt3__16vectorIPiNS_9allocatorIS1_EEE19__copy_assign_allocB7v160006ERKS4_NS_17integral_constantIbLb0EEE, symObjAddr: 0xF9B4, symBinAddr: 0x100010738, symSize: 0x14 }
  - { offsetInCU: 0x1FA6E, offset: 0x1FA6E, size: 0x8, addend: 0x0, symName: __ZNSt3__16vectorIPiNS_9allocatorIS1_EEE18__construct_at_endIPS1_Li0EEEvT_S7_m, symObjAddr: 0xFA84, symBinAddr: 0x100010808, symSize: 0x94 }
  - { offsetInCU: 0x1FAE1, offset: 0x1FAE1, size: 0x8, addend: 0x0, symName: __ZNSt3__16vectorIPiNS_9allocatorIS1_EEE17__destruct_at_endB7v160006EPS1_, symObjAddr: 0xFB18, symBinAddr: 0x10001089C, symSize: 0x88 }
  - { offsetInCU: 0x1FB25, offset: 0x1FB25, size: 0x8, addend: 0x0, symName: __ZNSt3__16vectorIPiNS_9allocatorIS1_EEE13__vdeallocateEv, symObjAddr: 0xFBA0, symBinAddr: 0x100010924, symSize: 0x8C }
  - { offsetInCU: 0x1FB4D, offset: 0x1FB4D, size: 0x8, addend: 0x0, symName: __ZNSt3__16vectorIPiNS_9allocatorIS1_EEE11__vallocateB7v160006Em, symObjAddr: 0xFC2C, symBinAddr: 0x1000109B0, symSize: 0xAC }
  - { offsetInCU: 0x1FBB5, offset: 0x1FBB5, size: 0x8, addend: 0x0, symName: __ZNKSt3__114__copy_trivialclB7v160006IPiS2_Li0EEENS_4pairIPT_PT0_EES5_S5_S7_, symObjAddr: 0xFEE8, symBinAddr: 0x100010C6C, symSize: 0x48 }
  - { offsetInCU: 0x1FC1D, offset: 0x1FC1D, size: 0x8, addend: 0x0, symName: __ZNSt3__14pairIPPiS2_EC1B7v160006ERKS2_S5_, symObjAddr: 0x100C4, symBinAddr: 0x100010E48, symSize: 0x3C }
  - { offsetInCU: 0x1FC63, offset: 0x1FC63, size: 0x8, addend: 0x0, symName: __ZNSt3__14pairIPPiS2_EC2B7v160006ERKS2_S5_, symObjAddr: 0x10100, symBinAddr: 0x100010E84, symSize: 0x34 }
  - { offsetInCU: 0x1FCA9, offset: 0x1FCA9, size: 0x8, addend: 0x0, symName: __ZNSt3__118__unwrap_iter_implIPPiLb1EE8__unwrapB7v160006ES2_, symObjAddr: 0x10134, symBinAddr: 0x100010EB8, symSize: 0x24 }
  - { offsetInCU: 0x1FCCC, offset: 0x1FCCC, size: 0x8, addend: 0x0, symName: __ZNSt3__118__unwrap_iter_implIPPiLb1EE8__rewrapB7v160006ES2_S2_, symObjAddr: 0x10158, symBinAddr: 0x100010EDC, symSize: 0x50 }
  - { offsetInCU: 0x1FCFD, offset: 0x1FCFD, size: 0x8, addend: 0x0, symName: __ZNSt3__129_AllocatorDestroyRangeReverseINS_9allocatorIPiEEPS2_EC1B7v160006ERS3_RS4_S7_, symObjAddr: 0x102F0, symBinAddr: 0x100011074, symSize: 0x44 }
  - { offsetInCU: 0x1FD54, offset: 0x1FD54, size: 0x8, addend: 0x0, symName: __ZNSt3__116allocator_traitsINS_9allocatorIPiEEE9constructB7v160006IS2_JRS2_EvEEvRS3_PT_DpOT0_, symObjAddr: 0x10334, symBinAddr: 0x1000110B8, symSize: 0x34 }
  - { offsetInCU: 0x1FDAB, offset: 0x1FDAB, size: 0x8, addend: 0x0, symName: __ZNSt3__128__exception_guard_exceptionsINS_29_AllocatorDestroyRangeReverseINS_9allocatorIPiEEPS3_EEE10__completeB7v160006Ev, symObjAddr: 0x10368, symBinAddr: 0x1000110EC, symSize: 0x1C }
  - { offsetInCU: 0x1FDD1, offset: 0x1FDD1, size: 0x8, addend: 0x0, symName: __ZNSt3__128__exception_guard_exceptionsINS_29_AllocatorDestroyRangeReverseINS_9allocatorIPiEEPS3_EEED1B7v160006Ev, symObjAddr: 0x10384, symBinAddr: 0x100011108, symSize: 0x2C }
  - { offsetInCU: 0x1FDFB, offset: 0x1FDFB, size: 0x8, addend: 0x0, symName: __ZNSt3__128__exception_guard_exceptionsINS_29_AllocatorDestroyRangeReverseINS_9allocatorIPiEEPS3_EEEC1B7v160006ES6_, symObjAddr: 0x103B0, symBinAddr: 0x100011134, symSize: 0x34 }
  - { offsetInCU: 0x1FE34, offset: 0x1FE34, size: 0x8, addend: 0x0, symName: __ZNSt3__128__exception_guard_exceptionsINS_29_AllocatorDestroyRangeReverseINS_9allocatorIPiEEPS3_EEEC2B7v160006ES6_, symObjAddr: 0x103E4, symBinAddr: 0x100011168, symSize: 0x30 }
  - { offsetInCU: 0x1FE6D, offset: 0x1FE6D, size: 0x8, addend: 0x0, symName: __ZNSt3__129_AllocatorDestroyRangeReverseINS_9allocatorIPiEEPS2_EC2B7v160006ERS3_RS4_S7_, symObjAddr: 0x10414, symBinAddr: 0x100011198, symSize: 0x38 }
  - { offsetInCU: 0x1FEC4, offset: 0x1FEC4, size: 0x8, addend: 0x0, symName: __ZNSt3__19allocatorIPiE9constructB7v160006IS1_JRS1_EEEvPT_DpOT0_, symObjAddr: 0x1044C, symBinAddr: 0x1000111D0, symSize: 0x28 }
  - { offsetInCU: 0x1FF1A, offset: 0x1FF1A, size: 0x8, addend: 0x0, symName: __ZNSt3__128__exception_guard_exceptionsINS_29_AllocatorDestroyRangeReverseINS_9allocatorIPiEEPS3_EEED2B7v160006Ev, symObjAddr: 0x10474, symBinAddr: 0x1000111F8, symSize: 0x48 }
  - { offsetInCU: 0x1FF44, offset: 0x1FF44, size: 0x8, addend: 0x0, symName: __ZNKSt3__129_AllocatorDestroyRangeReverseINS_9allocatorIPiEEPS2_EclB7v160006Ev, symObjAddr: 0x104BC, symBinAddr: 0x100011240, symSize: 0x68 }
  - { offsetInCU: 0x1FF6A, offset: 0x1FF6A, size: 0x8, addend: 0x0, symName: __ZNSt3__16vectorIPiNS_9allocatorIS1_EEE27__invalidate_iterators_pastB7v160006EPS1_, symObjAddr: 0x10594, symBinAddr: 0x100011318, symSize: 0x14 }
  - { offsetInCU: 0x1FFA1, offset: 0x1FFA1, size: 0x8, addend: 0x0, symName: __ZNKSt3__16vectorIPiNS_9allocatorIS1_EEE17__annotate_shrinkB7v160006Em, symObjAddr: 0x105A8, symBinAddr: 0x10001132C, symSize: 0xB4 }
  - { offsetInCU: 0x1FFD6, offset: 0x1FFD6, size: 0x8, addend: 0x0, symName: __ZNSt3__16vectorIPiNS_9allocatorIS1_EEEC2ERKS4_, symObjAddr: 0x1065C, symBinAddr: 0x1000113E0, symSize: 0x118 }
  - { offsetInCU: 0x20035, offset: 0x20035, size: 0x8, addend: 0x0, symName: __ZNSt3__116allocator_traitsINS_9allocatorIPiEEE37select_on_container_copy_constructionB7v160006IS3_vvEES3_RKS3_, symObjAddr: 0x10774, symBinAddr: 0x1000114F8, symSize: 0x10 }
  - { offsetInCU: 0x2006A, offset: 0x2006A, size: 0x8, addend: 0x0, symName: __ZNSt3__117__compressed_pairIPPiNS_9allocatorIS1_EEEC1B7v160006IDnS4_EEOT_OT0_, symObjAddr: 0x10784, symBinAddr: 0x100011508, symSize: 0x3C }
  - { offsetInCU: 0x200C2, offset: 0x200C2, size: 0x8, addend: 0x0, symName: __ZNSt3__128__exception_guard_exceptionsINS_6vectorIPiNS_9allocatorIS2_EEE16__destroy_vectorEE10__completeB7v160006Ev, symObjAddr: 0x10800, symBinAddr: 0x100011584, symSize: 0x1C }
  - { offsetInCU: 0x200E8, offset: 0x200E8, size: 0x8, addend: 0x0, symName: __ZNSt3__128__exception_guard_exceptionsINS_6vectorIPiNS_9allocatorIS2_EEE16__destroy_vectorEED1B7v160006Ev, symObjAddr: 0x1081C, symBinAddr: 0x1000115A0, symSize: 0x2C }
  - { offsetInCU: 0x20112, offset: 0x20112, size: 0x8, addend: 0x0, symName: __ZNSt3__117__compressed_pairIPPiNS_9allocatorIS1_EEEC2B7v160006IDnS4_EEOT_OT0_, symObjAddr: 0x10848, symBinAddr: 0x1000115CC, symSize: 0x44 }
  - { offsetInCU: 0x2016A, offset: 0x2016A, size: 0x8, addend: 0x0, symName: __ZNSt3__122__compressed_pair_elemINS_9allocatorIPiEELi1ELb1EEC2B7v160006IS3_vEEOT_, symObjAddr: 0x1088C, symBinAddr: 0x100011610, symSize: 0x18 }
  - { offsetInCU: 0x201AC, offset: 0x201AC, size: 0x8, addend: 0x0, symName: __ZNSt3__128__exception_guard_exceptionsINS_6vectorIPiNS_9allocatorIS2_EEE16__destroy_vectorEEC1B7v160006ES6_, symObjAddr: 0x108A4, symBinAddr: 0x100011628, symSize: 0x34 }
  - { offsetInCU: 0x201E4, offset: 0x201E4, size: 0x8, addend: 0x0, symName: __ZNSt3__128__exception_guard_exceptionsINS_6vectorIPiNS_9allocatorIS2_EEE16__destroy_vectorEEC2B7v160006ES6_, symObjAddr: 0x108D8, symBinAddr: 0x10001165C, symSize: 0x24 }
  - { offsetInCU: 0x2021C, offset: 0x2021C, size: 0x8, addend: 0x0, symName: __ZNSt3__128__exception_guard_exceptionsINS_6vectorIPiNS_9allocatorIS2_EEE16__destroy_vectorEED2B7v160006Ev, symObjAddr: 0x108FC, symBinAddr: 0x100011680, symSize: 0x48 }
  - { offsetInCU: 0x20246, offset: 0x20246, size: 0x8, addend: 0x0, symName: __ZNSt3__112__hash_tableINS_17__hash_value_typeIiNS_6vectorIPiNS_9allocatorIS3_EEEEEENS_22__unordered_map_hasherIiS7_NS_4hashIiEENS_8equal_toIiEELb1EEENS_21__unordered_map_equalIiS7_SC_SA_Lb1EEENS4_IS7_EEE14__erase_uniqueIiEEmRKT_, symObjAddr: 0x10944, symBinAddr: 0x1000116C8, symSize: 0x98 }
  - { offsetInCU: 0x20295, offset: 0x20295, size: 0x8, addend: 0x0, symName: __ZNSt3__112__hash_tableINS_17__hash_value_typeIiNS_6vectorIPiNS_9allocatorIS3_EEEEEENS_22__unordered_map_hasherIiS7_NS_4hashIiEENS_8equal_toIiEELb1EEENS_21__unordered_map_equalIiS7_SC_SA_Lb1EEENS4_IS7_EEE5eraseENS_21__hash_const_iteratorIPNS_11__hash_nodeIS7_PvEEEE, symObjAddr: 0x109DC, symBinAddr: 0x100011760, symSize: 0x70 }
  - { offsetInCU: 0x202EA, offset: 0x202EA, size: 0x8, addend: 0x0, symName: __ZNSt3__121__hash_const_iteratorIPNS_11__hash_nodeINS_17__hash_value_typeIiNS_6vectorIPiNS_9allocatorIS4_EEEEEEPvEEEC1B7v160006ERKNS_15__hash_iteratorISB_EE, symObjAddr: 0x10A4C, symBinAddr: 0x1000117D0, symSize: 0x34 }
  - { offsetInCU: 0x20323, offset: 0x20323, size: 0x8, addend: 0x0, symName: __ZNSt3__115__hash_iteratorIPNS_11__hash_nodeINS_17__hash_value_typeIiNS_6vectorIPiNS_9allocatorIS4_EEEEEEPvEEEppB7v160006Ev, symObjAddr: 0x10A80, symBinAddr: 0x100011804, symSize: 0x20 }
  - { offsetInCU: 0x20349, offset: 0x20349, size: 0x8, addend: 0x0, symName: __ZNSt3__112__hash_tableINS_17__hash_value_typeIiNS_6vectorIPiNS_9allocatorIS3_EEEEEENS_22__unordered_map_hasherIiS7_NS_4hashIiEENS_8equal_toIiEELb1EEENS_21__unordered_map_equalIiS7_SC_SA_Lb1EEENS4_IS7_EEE6removeENS_21__hash_const_iteratorIPNS_11__hash_nodeIS7_PvEEEE, symObjAddr: 0x10AA0, symBinAddr: 0x100011824, symSize: 0x220 }
  - { offsetInCU: 0x203DB, offset: 0x203DB, size: 0x8, addend: 0x0, symName: __ZNSt3__110unique_ptrINS_11__hash_nodeINS_17__hash_value_typeIiNS_6vectorIPiNS_9allocatorIS4_EEEEEEPvEENS_22__hash_node_destructorINS5_ISA_EEEEED1B7v160006Ev, symObjAddr: 0x10CC0, symBinAddr: 0x100011A44, symSize: 0x2C }
  - { offsetInCU: 0x20405, offset: 0x20405, size: 0x8, addend: 0x0, symName: __ZNSt3__122__hash_node_destructorINS_9allocatorINS_11__hash_nodeINS_17__hash_value_typeIiNS_6vectorIPiNS1_IS5_EEEEEEPvEEEEEC1B7v160006ERSB_b, symObjAddr: 0x10CEC, symBinAddr: 0x100011A70, symSize: 0x48 }
  - { offsetInCU: 0x20453, offset: 0x20453, size: 0x8, addend: 0x0, symName: __ZNSt3__110unique_ptrINS_11__hash_nodeINS_17__hash_value_typeIiNS_6vectorIPiNS_9allocatorIS4_EEEEEEPvEENS_22__hash_node_destructorINS5_ISA_EEEEEC1B7v160006ILb1EvEEPSA_NS_16__dependent_typeINS_27__unique_ptr_deleter_sfinaeISD_EEXT_EE20__good_rval_ref_typeE, symObjAddr: 0x10D34, symBinAddr: 0x100011AB8, symSize: 0x3C }
  - { offsetInCU: 0x204A4, offset: 0x204A4, size: 0x8, addend: 0x0, symName: __ZNSt3__122__hash_node_destructorINS_9allocatorINS_11__hash_nodeINS_17__hash_value_typeIiNS_6vectorIPiNS1_IS5_EEEEEEPvEEEEEC2B7v160006ERSB_b, symObjAddr: 0x10D70, symBinAddr: 0x100011AF4, symSize: 0x38 }
  - { offsetInCU: 0x204EC, offset: 0x204EC, size: 0x8, addend: 0x0, symName: __ZNSt3__110unique_ptrINS_11__hash_nodeINS_17__hash_value_typeIiNS_6vectorIPiNS_9allocatorIS4_EEEEEEPvEENS_22__hash_node_destructorINS5_ISA_EEEEEC2B7v160006ILb1EvEEPSA_NS_16__dependent_typeINS_27__unique_ptr_deleter_sfinaeISD_EEXT_EE20__good_rval_ref_typeE, symObjAddr: 0x10DA8, symBinAddr: 0x100011B2C, symSize: 0x5C }
  - { offsetInCU: 0x2053D, offset: 0x2053D, size: 0x8, addend: 0x0, symName: __ZNSt3__117__compressed_pairIPNS_11__hash_nodeINS_17__hash_value_typeIiNS_6vectorIPiNS_9allocatorIS4_EEEEEEPvEENS_22__hash_node_destructorINS5_ISA_EEEEEC1B7v160006IRSB_SE_EEOT_OT0_, symObjAddr: 0x10E04, symBinAddr: 0x100011B88, symSize: 0x3C }
  - { offsetInCU: 0x20595, offset: 0x20595, size: 0x8, addend: 0x0, symName: __ZNSt3__117__compressed_pairIPNS_11__hash_nodeINS_17__hash_value_typeIiNS_6vectorIPiNS_9allocatorIS4_EEEEEEPvEENS_22__hash_node_destructorINS5_ISA_EEEEEC2B7v160006IRSB_SE_EEOT_OT0_, symObjAddr: 0x10E40, symBinAddr: 0x100011BC4, symSize: 0x48 }
  - { offsetInCU: 0x205ED, offset: 0x205ED, size: 0x8, addend: 0x0, symName: __ZNSt3__122__compressed_pair_elemINS_22__hash_node_destructorINS_9allocatorINS_11__hash_nodeINS_17__hash_value_typeIiNS_6vectorIPiNS2_IS6_EEEEEEPvEEEEEELi1ELb0EEC2B7v160006ISD_vEEOT_, symObjAddr: 0x10E88, symBinAddr: 0x100011C0C, symSize: 0x24 }
  - { offsetInCU: 0x2062F, offset: 0x2062F, size: 0x8, addend: 0x0, symName: __ZNSt3__110unique_ptrINS_11__hash_nodeINS_17__hash_value_typeIiNS_6vectorIPiNS_9allocatorIS4_EEEEEEPvEENS_22__hash_node_destructorINS5_ISA_EEEEED2B7v160006Ev, symObjAddr: 0x10EAC, symBinAddr: 0x100011C30, symSize: 0x30 }
  - { offsetInCU: 0x20659, offset: 0x20659, size: 0x8, addend: 0x0, symName: __ZNSt3__110unique_ptrINS_11__hash_nodeINS_17__hash_value_typeIiNS_6vectorIPiNS_9allocatorIS4_EEEEEEPvEENS_22__hash_node_destructorINS5_ISA_EEEEE5resetB7v160006EPSA_, symObjAddr: 0x10EDC, symBinAddr: 0x100011C60, symSize: 0x78 }
  - { offsetInCU: 0x2069D, offset: 0x2069D, size: 0x8, addend: 0x0, symName: __ZNSt3__117__compressed_pairIPNS_11__hash_nodeINS_17__hash_value_typeIiNS_6vectorIPiNS_9allocatorIS4_EEEEEEPvEENS_22__hash_node_destructorINS5_ISA_EEEEE5firstB7v160006Ev, symObjAddr: 0x10F54, symBinAddr: 0x100011CD8, symSize: 0x24 }
  - { offsetInCU: 0x206C3, offset: 0x206C3, size: 0x8, addend: 0x0, symName: __ZNSt3__117__compressed_pairIPNS_11__hash_nodeINS_17__hash_value_typeIiNS_6vectorIPiNS_9allocatorIS4_EEEEEEPvEENS_22__hash_node_destructorINS5_ISA_EEEEE6secondB7v160006Ev, symObjAddr: 0x10F78, symBinAddr: 0x100011CFC, symSize: 0x28 }
  - { offsetInCU: 0x206E9, offset: 0x206E9, size: 0x8, addend: 0x0, symName: __ZNSt3__122__hash_node_destructorINS_9allocatorINS_11__hash_nodeINS_17__hash_value_typeIiNS_6vectorIPiNS1_IS5_EEEEEEPvEEEEEclB7v160006EPSA_, symObjAddr: 0x10FA0, symBinAddr: 0x100011D24, symSize: 0xAC }
  - { offsetInCU: 0x2071E, offset: 0x2071E, size: 0x8, addend: 0x0, symName: __ZNSt3__122__compressed_pair_elemINS_22__hash_node_destructorINS_9allocatorINS_11__hash_nodeINS_17__hash_value_typeIiNS_6vectorIPiNS2_IS6_EEEEEEPvEEEEEELi1ELb0EE5__getB7v160006Ev, symObjAddr: 0x1104C, symBinAddr: 0x100011DD0, symSize: 0x14 }
  - { offsetInCU: 0x20744, offset: 0x20744, size: 0x8, addend: 0x0, symName: __ZNSt3__121__hash_const_iteratorIPNS_11__hash_nodeINS_17__hash_value_typeIiNS_6vectorIPiNS_9allocatorIS4_EEEEEEPvEEEC2B7v160006ERKNS_15__hash_iteratorISB_EE, symObjAddr: 0x11060, symBinAddr: 0x100011DE4, symSize: 0x24 }
  - { offsetInCU: 0x2077D, offset: 0x2077D, size: 0x8, addend: 0x0, symName: __ZNSt3__112basic_stringIcNS_11char_traitsIcEENS_9allocatorIcEEEC2B7v160006IDnEEPKc, symObjAddr: 0x110B8, symBinAddr: 0x100011E3C, symSize: 0x60 }
  - { offsetInCU: 0x20840, offset: 0x20840, size: 0x8, addend: 0x0, symName: __ZNKSt3__113basic_istreamIcNS_11char_traitsIcEEE6sentrycvbB7v160006Ev, symObjAddr: 0x11118, symBinAddr: 0x100011E9C, symSize: 0x1C }
  - { offsetInCU: 0x20866, offset: 0x20866, size: 0x8, addend: 0x0, symName: __ZNSt3__112basic_stringIcNS_11char_traitsIcEENS_9allocatorIcEEE5clearB7v160006Ev, symObjAddr: 0x11134, symBinAddr: 0x100011EB8, symSize: 0x9C }
  - { offsetInCU: 0x2088E, offset: 0x2088E, size: 0x8, addend: 0x0, symName: __ZNKSt3__112basic_stringIcNS_11char_traitsIcEENS_9allocatorIcEEE8max_sizeB7v160006Ev, symObjAddr: 0x111D0, symBinAddr: 0x100011F54, symSize: 0xAC }
  - { offsetInCU: 0x208E1, offset: 0x208E1, size: 0x8, addend: 0x0, symName: __ZNSt3__115basic_streambufIcNS_11char_traitsIcEEE5sgetcB7v160006Ev, symObjAddr: 0x1127C, symBinAddr: 0x100012000, symSize: 0x70 }
  - { offsetInCU: 0x20907, offset: 0x20907, size: 0x8, addend: 0x0, symName: __ZNSt3__111char_traitsIcE12to_char_typeEi, symObjAddr: 0x112EC, symBinAddr: 0x100012070, symSize: 0x18 }
  - { offsetInCU: 0x2092A, offset: 0x2092A, size: 0x8, addend: 0x0, symName: __ZNKSt3__15ctypeIcE2isB7v160006Ejc, symObjAddr: 0x11304, symBinAddr: 0x100012088, symSize: 0x7C }
  - { offsetInCU: 0x2096E, offset: 0x2096E, size: 0x8, addend: 0x0, symName: __ZNSt3__115basic_streambufIcNS_11char_traitsIcEEE6sbumpcB7v160006Ev, symObjAddr: 0x11380, symBinAddr: 0x100012104, symSize: 0x78 }
  - { offsetInCU: 0x20994, offset: 0x20994, size: 0x8, addend: 0x0, symName: __ZNSt3__18ios_base18__setstate_nothrowB7v160006Ej, symObjAddr: 0x113F8, symBinAddr: 0x10001217C, symSize: 0x64 }
  - { offsetInCU: 0x209C9, offset: 0x209C9, size: 0x8, addend: 0x0, symName: __ZNKSt3__19basic_iosIcNS_11char_traitsIcEEE10exceptionsB7v160006Ev, symObjAddr: 0x1145C, symBinAddr: 0x1000121E0, symSize: 0x24 }
  - { offsetInCU: 0x209EF, offset: 0x209EF, size: 0x8, addend: 0x0, symName: __ZNSt3__111char_traitsIcE6assignERcRKc, symObjAddr: 0x11490, symBinAddr: 0x100012214, symSize: 0x24 }
  - { offsetInCU: 0x20A20, offset: 0x20A20, size: 0x8, addend: 0x0, symName: __ZNSt3__112basic_stringIcNS_11char_traitsIcEENS_9allocatorIcEEE16__set_short_sizeB7v160006Em, symObjAddr: 0x114B4, symBinAddr: 0x100012238, symSize: 0x78 }
  - { offsetInCU: 0x20A55, offset: 0x20A55, size: 0x8, addend: 0x0, symName: __ZNKSt3__112basic_stringIcNS_11char_traitsIcEENS_9allocatorIcEEE7__allocB7v160006Ev, symObjAddr: 0x1152C, symBinAddr: 0x1000122B0, symSize: 0x24 }
  - { offsetInCU: 0x20A7B, offset: 0x20A7B, size: 0x8, addend: 0x0, symName: __ZNSt3__114numeric_limitsImE3maxB7v160006Ev, symObjAddr: 0x11550, symBinAddr: 0x1000122D4, symSize: 0x14 }
  - { offsetInCU: 0x20A8F, offset: 0x20A8F, size: 0x8, addend: 0x0, symName: __ZNKSt3__117__compressed_pairINS_12basic_stringIcNS_11char_traitsIcEENS_9allocatorIcEEE5__repES5_E6secondB7v160006Ev, symObjAddr: 0x11564, symBinAddr: 0x1000122E8, symSize: 0x24 }
  - { offsetInCU: 0x20AB5, offset: 0x20AB5, size: 0x8, addend: 0x0, symName: __ZNKSt3__122__compressed_pair_elemINS_9allocatorIcEELi1ELb1EE5__getB7v160006Ev, symObjAddr: 0x11588, symBinAddr: 0x10001230C, symSize: 0x14 }
  - { offsetInCU: 0x20ADB, offset: 0x20ADB, size: 0x8, addend: 0x0, symName: __ZNSt3__123__libcpp_numeric_limitsImLb1EE3maxB7v160006Ev, symObjAddr: 0x1159C, symBinAddr: 0x100012320, symSize: 0x8 }
  - { offsetInCU: 0x20AEF, offset: 0x20AEF, size: 0x8, addend: 0x0, symName: __ZNSt3__111char_traitsIcE11to_int_typeEc, symObjAddr: 0x115A4, symBinAddr: 0x100012328, symSize: 0x14 }
  - { offsetInCU: 0x20B12, offset: 0x20B12, size: 0x8, addend: 0x0, symName: __ZNKSt3__18ios_base10exceptionsB7v160006Ev, symObjAddr: 0x115B8, symBinAddr: 0x10001233C, symSize: 0x18 }
...
